 Quadrature_Phase_Shift_Keying_cgxe

 Timestamp is 65f7197b (Sun Mar 17 21:55:31 2024)

 Preferred load address is 0000000180000000

 Start         Length     Name                   Class
 0001:00000000 000160e0H .text$mn                CODE
 0001:000160e0 00000036H .text$mn$00             CODE
 0001:00016116 00000092H .text$x                 CODE
 0002:00000000 00000348H .idata$5                DATA
 0002:00000348 00000028H .00cfg                  DATA
 0002:00000370 00000008H .CRT$XCA                DATA
 0002:00000378 00000008H .CRT$XCZ                DATA
 0002:00000380 00000008H .CRT$XIA                DATA
 0002:00000388 00000008H .CRT$XIZ                DATA
 0002:00000390 00000008H .CRT$XPA                DATA
 0002:00000398 00000008H .CRT$XPZ                DATA
 0002:000003a0 00000008H .CRT$XTA                DATA
 0002:000003a8 00000008H .CRT$XTZ                DATA
 0002:000003b0 00000000H .gehcont$y              DATA
 0002:000003b0 00000000H .gfids$y                DATA
 0002:000003b0 000005d0H .rdata                  DATA
 0002:00000980 00000008H .rdata$CastGuardVftablesA DATA
 0002:00000988 00000008H .rdata$CastGuardVftablesC DATA
 0002:00000990 00000138H .rdata$voltmd           DATA
 0002:00000ac8 00000278H .rdata$zzzdbg           DATA
 0002:00000d40 00000008H .rtc$IAA                DATA
 0002:00000d48 00000008H .rtc$IZZ                DATA
 0002:00000d50 00000008H .rtc$TAA                DATA
 0002:00000d58 00000008H .rtc$TZZ                DATA
 0002:00000d60 00000a20H .xdata                  DATA
 0002:00001780 0000008cH .edata                  DATA
 0002:0000180c 000000f0H .idata$2                DATA
 0002:000018fc 00000014H .idata$3                DATA
 0002:00001910 00000348H .idata$4                DATA
 0002:00001c58 0000089aH .idata$6                DATA
 0003:00000000 0000a890H .data                   DATA
 0003:0000a890 00000640H .bss                    DATA
 0004:00000000 00000bc4H .pdata                  DATA

  Address         Publics by Value              Rva+Base               Lib:Object

 0000:00000000       __guard_fids_table         0000000000000000     <absolute>
 0000:00000000       __x64_code_ranges_to_entry_points_count 0000000000000000     <absolute>
 0000:00000000       __hybrid_auxiliary_iat     0000000000000000     <absolute>
 0000:00000000       __guard_fids_count         0000000000000000     <absolute>
 0000:00000000       __x64_code_ranges_to_entry_points 0000000000000000     <absolute>
 0000:00000000       __arm64x_extra_rfe_table   0000000000000000     <absolute>
 0000:00000000       __dynamic_value_reloc_table 0000000000000000     <absolute>
 0000:00000000       __hybrid_code_map          0000000000000000     <absolute>
 0000:00000000       __guard_longjmp_count      0000000000000000     <absolute>
 0000:00000000       __AbsoluteZero             0000000000000000     <absolute>
 0000:00000000       __arm64x_extra_rfe_table_size 0000000000000000     <absolute>
 0000:00000000       ___safe_se_handler_table   0000000000000000     <absolute>
 0000:00000000       __hybrid_code_map_count    0000000000000000     <absolute>
 0000:00000000       __guard_longjmp_table      0000000000000000     <absolute>
 0000:00000000       ___safe_se_handler_count   0000000000000000     <absolute>
 0000:00000000       __guard_iat_count          0000000000000000     <absolute>
 0000:00000000       __guard_check_icall_a64n_fptr 0000000000000000     <absolute>
 0000:00000000       __hybrid_auxiliary_iat_copy 0000000000000000     <absolute>
 0000:00000000       __guard_eh_cont_count      0000000000000000     <absolute>
 0000:00000000       __arm64x_redirection_metadata 0000000000000000     <absolute>
 0000:00000000       __guard_iat_table          0000000000000000     <absolute>
 0000:00000000       __arm64x_redirection_metadata_count 0000000000000000     <absolute>
 0000:00000000       __arm64x_native_entrypoint 0000000000000000     <absolute>
 0000:00000000       __enclave_config           0000000000000000     <absolute>
 0000:00000000       __guard_eh_cont_table      0000000000000000     <absolute>
 0000:00000100       __guard_flags              0000000000000100     <absolute>
 0000:00000000       __ImageBase                0000000180000000     <linker-defined>
 0001:00000000       mexfilerequiredapiversion  0000000180001000 f   c_mexapi_version.obj
 0001:00000030       cgxe_Quadrature_Phase_Shift_Keying_method_dispatcher 0000000180001030 f   Quadrature_Phase_Shift_Keying_cgxe.obj
 0001:00000180       method_dispatcher_Jf2lRQWLrP2B1g4UrAzlsF 0000000180001180 f   m_Jf2lRQWLrP2B1g4UrAzlsF.obj
 0001:00005670       cgxe_Jf2lRQWLrP2B1g4UrAzlsF_BuildInfoUpdate 0000000180006670 f   m_Jf2lRQWLrP2B1g4UrAzlsF.obj
 0001:00005910       cgxe_Jf2lRQWLrP2B1g4UrAzlsF_fallback_info 0000000180006910 f   m_Jf2lRQWLrP2B1g4UrAzlsF.obj
 0001:000059f0       method_dispatcher_UGsKOob1SZ1GnhcskvCSLB 00000001800069f0 f   m_UGsKOob1SZ1GnhcskvCSLB.obj
 0001:0000ba20       cgxe_UGsKOob1SZ1GnhcskvCSLB_BuildInfoUpdate 000000018000ca20 f   m_UGsKOob1SZ1GnhcskvCSLB.obj
 0001:0000bcc0       cgxe_UGsKOob1SZ1GnhcskvCSLB_fallback_info 000000018000ccc0 f   m_UGsKOob1SZ1GnhcskvCSLB.obj
 0001:0000bd60       mexFunction                000000018000cd60 f   Quadrature_Phase_Shift_Keying_cgxe_registry.obj
 0001:0000dbd0       _ssSetInputPortDirectFeedThroughFcn 000000018000ebd0 f   Quadrature_Phase_Shift_Keying_cgxe_registry.obj
 0001:0000dd40       _ssSetRWorkValueFcn        000000018000ed40 f   Quadrature_Phase_Shift_Keying_cgxe_registry.obj
 0001:0000ddc0       _ssGetRWorkValueFcn        000000018000edc0 f   Quadrature_Phase_Shift_Keying_cgxe_registry.obj
 0001:0000de30       _ssSetIWorkValueFcn        000000018000ee30 f   Quadrature_Phase_Shift_Keying_cgxe_registry.obj
 0001:0000deb0       _ssGetIWorkValueFcn        000000018000eeb0 f   Quadrature_Phase_Shift_Keying_cgxe_registry.obj
 0001:0000df20       _ssSetPWorkValueFcn        000000018000ef20 f   Quadrature_Phase_Shift_Keying_cgxe_registry.obj
 0001:0000dfa0       _ssGetPWorkValueFcn        000000018000efa0 f   Quadrature_Phase_Shift_Keying_cgxe_registry.obj
 0001:0000e010       _ssGetInputPortSignalFcn   000000018000f010 f   Quadrature_Phase_Shift_Keying_cgxe_registry.obj
 0001:0000e3a0       _ssGetInputPortBufferDstPortFcn 000000018000f3a0 f   Quadrature_Phase_Shift_Keying_cgxe_registry.obj
 0001:0000e420       _ssGetInputPortSignalPtrsFcn 000000018000f420 f   Quadrature_Phase_Shift_Keying_cgxe_registry.obj
 0001:0000e7b0       ssGetParameterTuningCompliance 000000018000f7b0 f   Quadrature_Phase_Shift_Keying_cgxe_registry.obj
 0001:0000e820       _ssReadInputStringFcn      000000018000f820 f   Quadrature_Phase_Shift_Keying_cgxe_registry.obj
 0001:0000e890       ssGetDTypeIdFromMxArray    000000018000f890 f   Quadrature_Phase_Shift_Keying_cgxe_registry.obj
 0001:0000e9b0       ssWriteRTWMx2dMatParam     000000018000f9b0 f   Quadrature_Phase_Shift_Keying_cgxe_registry.obj
 0001:0000ea40       ssWriteRTWMxVectParam      000000018000fa40 f   Quadrature_Phase_Shift_Keying_cgxe_registry.obj
 0001:0000eac0       ssWriteRTWParameters       000000018000fac0 f   Quadrature_Phase_Shift_Keying_cgxe_registry.obj
 0001:0000f080       ssWriteRTWParamSettings    0000000180010080 f   Quadrature_Phase_Shift_Keying_cgxe_registry.obj
 0001:0000f770       ssWriteRTWStr              0000000180010770 f   Quadrature_Phase_Shift_Keying_cgxe_registry.obj
 0001:0000f7d0       ssWriteRTWWorkVect         00000001800107d0 f   Quadrature_Phase_Shift_Keying_cgxe_registry.obj
 0001:0000fd30       ssWarning                  0000000180010d30 f   Quadrature_Phase_Shift_Keying_cgxe_registry.obj
 0001:0000fe20       ssGetRootSS                0000000180010e20 f   Quadrature_Phase_Shift_Keying_cgxe_registry.obj
 0001:0000fee0       ssGetParentSS              0000000180010ee0 f   Quadrature_Phase_Shift_Keying_cgxe_registry.obj
 0001:0000ffa0       ssWriteRTWNameValuePair    0000000180010fa0 f   Quadrature_Phase_Shift_Keying_cgxe_registry.obj
 0001:000104a0       _ssSetInputPortMatrixDimensions 00000001800114a0 f   Quadrature_Phase_Shift_Keying_cgxe_registry.obj
 0001:000105f0       _ssSetOutputPortMatrixDimensions 00000001800115f0 f   Quadrature_Phase_Shift_Keying_cgxe_registry.obj
 0001:00010740       _ssSetInputPortVectorDimension 0000000180011740 f   Quadrature_Phase_Shift_Keying_cgxe_registry.obj
 0001:000107f0       _ssSetOutputPortVectorDimension 00000001800117f0 f   Quadrature_Phase_Shift_Keying_cgxe_registry.obj
 0001:000108a0       ssIsRunTimeParamTunable    00000001800118a0 f   Quadrature_Phase_Shift_Keying_cgxe_registry.obj
 0001:00010910       ssGetSFuncBlockHandle      0000000180011910 f   Quadrature_Phase_Shift_Keying_cgxe_registry.obj
 0001:00010980       _ssGetCallSystemNumFcnCallDestinations 0000000180011980 f   Quadrature_Phase_Shift_Keying_cgxe_registry.obj
 0001:000109f0       _ssGetCurrentInputPortWidth 00000001800119f0 f   Quadrature_Phase_Shift_Keying_cgxe_registry.obj
 0001:00010b30       _ssGetCurrentOutputPortWidth 0000000180011b30 f   Quadrature_Phase_Shift_Keying_cgxe_registry.obj
 0001:00010c70       ssGetIsZeroCrossControlDisabled 0000000180011c70 f   Quadrature_Phase_Shift_Keying_cgxe_registry.obj
 0001:00010ce0       ssSetIsInputPortUsedForContZcSignal 0000000180011ce0 f   Quadrature_Phase_Shift_Keying_cgxe_registry.obj
 0001:00010d50       ssSetZcSignalIsZcElementDisc 0000000180011d50 f   Quadrature_Phase_Shift_Keying_cgxe_registry.obj
 0001:00010e00       ssSetZcSignalName          0000000180011e00 f   Quadrature_Phase_Shift_Keying_cgxe_registry.obj
 0001:00010e70       ssSetZcSignalWidth         0000000180011e70 f   Quadrature_Phase_Shift_Keying_cgxe_registry.obj
 0001:00010ee0       ssSetZcSignalZcEventType   0000000180011ee0 f   Quadrature_Phase_Shift_Keying_cgxe_registry.obj
 0001:00010f50       ssSetZcSignalType          0000000180011f50 f   Quadrature_Phase_Shift_Keying_cgxe_registry.obj
 0001:00010fc0       ssSetZcSignalZcTol         0000000180011fc0 f   Quadrature_Phase_Shift_Keying_cgxe_registry.obj
 0001:00011030       ssSetZcSignalNeedsEventNotification 0000000180012030 f   Quadrature_Phase_Shift_Keying_cgxe_registry.obj
 0001:000110a0       ssCreateAndAddZcSignalInfo 00000001800120a0 f   Quadrature_Phase_Shift_Keying_cgxe_registry.obj
 0001:00011110       ssCloneAndAddZcSignalInfo  0000000180012110 f   Quadrature_Phase_Shift_Keying_cgxe_registry.obj
 0001:00011180       ssGetNumZcSignals          0000000180012180 f   Quadrature_Phase_Shift_Keying_cgxe_registry.obj
 0001:000111f0       ssGetZcSignalVector        00000001800121f0 f   Quadrature_Phase_Shift_Keying_cgxe_registry.obj
 0001:00011260       ssGetZcSignalName          0000000180012260 f   Quadrature_Phase_Shift_Keying_cgxe_registry.obj
 0001:000112d0       ssGetZcSignalWidth         00000001800122d0 f   Quadrature_Phase_Shift_Keying_cgxe_registry.obj
 0001:00011340       ssGetZcSignalZcEventType   0000000180012340 f   Quadrature_Phase_Shift_Keying_cgxe_registry.obj
 0001:000113b0       ssGetZcSignalZcEvents      00000001800123b0 f   Quadrature_Phase_Shift_Keying_cgxe_registry.obj
 0001:00011420       ssGetZcSignalType          0000000180012420 f   Quadrature_Phase_Shift_Keying_cgxe_registry.obj
 0001:00011490       ssGetZcSignalZcTol         0000000180012490 f   Quadrature_Phase_Shift_Keying_cgxe_registry.obj
 0001:00011510       ssGetZcSignalNeedsEventNotification 0000000180012510 f   Quadrature_Phase_Shift_Keying_cgxe_registry.obj
 0001:00011580       ssGetZcSignalIsZcElementDisc 0000000180012580 f   Quadrature_Phase_Shift_Keying_cgxe_registry.obj
 0001:00011620       ssGetIsInputPortElementContinuous 0000000180012620 f   Quadrature_Phase_Shift_Keying_cgxe_registry.obj
 0001:000116c0       _ssGetAbsTol               00000001800126c0 f   Quadrature_Phase_Shift_Keying_cgxe_registry.obj
 0001:00011730       _ssSetStateAbsTol          0000000180012730 f   Quadrature_Phase_Shift_Keying_cgxe_registry.obj
 0001:00011810       _ssSetInputPortReusableFcn 0000000180012810 f   Quadrature_Phase_Shift_Keying_cgxe_registry.obj
 0001:00011910       _ssSetOutputPortReusableFcn 0000000180012910 f   Quadrature_Phase_Shift_Keying_cgxe_registry.obj
 0001:00011a10       _ssSetSymbolicDimsSupport  0000000180012a10 f   Quadrature_Phase_Shift_Keying_cgxe_registry.obj
 0001:00011a80       _ssRegisterSymbolicDimsExpr 0000000180012a80 f   Quadrature_Phase_Shift_Keying_cgxe_registry.obj
 0001:00011b00       _ssRegisterSymbolicDimsMATLABExpr 0000000180012b00 f   Quadrature_Phase_Shift_Keying_cgxe_registry.obj
 0001:00011b90       _ssRegisterSymbolicDims    0000000180012b90 f   Quadrature_Phase_Shift_Keying_cgxe_registry.obj
 0001:00011c30       _ssRegisterSymbolicDimsString 0000000180012c30 f   Quadrature_Phase_Shift_Keying_cgxe_registry.obj
 0001:00011cb0       _ssRegisterSymbolicDimsIntValue 0000000180012cb0 f   Quadrature_Phase_Shift_Keying_cgxe_registry.obj
 0001:00011d20       _ssRegisterSymbolicEqualRelation 0000000180012d20 f   Quadrature_Phase_Shift_Keying_cgxe_registry.obj
 0001:00011d90       _ssRegisterSymbolicEqualValue 0000000180012d90 f   Quadrature_Phase_Shift_Keying_cgxe_registry.obj
 0001:00011e00       _ssAmendLeadingSymbolicDims 0000000180012e00 f   Quadrature_Phase_Shift_Keying_cgxe_registry.obj
 0001:00011e80       _ssAmendTrailingSymbolicDims 0000000180012e80 f   Quadrature_Phase_Shift_Keying_cgxe_registry.obj
 0001:00011f00       _ssRegisterSymbolicDimsPlus 0000000180012f00 f   Quadrature_Phase_Shift_Keying_cgxe_registry.obj
 0001:00011f80       _ssRegisterSymbolicDimsMinus 0000000180012f80 f   Quadrature_Phase_Shift_Keying_cgxe_registry.obj
 0001:00012000       _ssRegisterSymbolicDimsMultiply 0000000180013000 f   Quadrature_Phase_Shift_Keying_cgxe_registry.obj
 0001:00012080       _ssRegisterSymbolicDimsDivide 0000000180013080 f   Quadrature_Phase_Shift_Keying_cgxe_registry.obj
 0001:00012100       _ssGetNumSymbolicDims      0000000180013100 f   Quadrature_Phase_Shift_Keying_cgxe_registry.obj
 0001:00012170       _ssGetSymbolicDim          0000000180013170 f   Quadrature_Phase_Shift_Keying_cgxe_registry.obj
 0001:000121f0       _ssSetInputPortSymbolicDimsId 00000001800131f0 f   Quadrature_Phase_Shift_Keying_cgxe_registry.obj
 0001:00012260       _ssGetCompInputPortSymbolicDimsId 0000000180013260 f   Quadrature_Phase_Shift_Keying_cgxe_registry.obj
 0001:000122d0       _ssSetCompInputPortSymbolicDimsId 00000001800132d0 f   Quadrature_Phase_Shift_Keying_cgxe_registry.obj
 0001:00012340       _ssSetOutputPortSymbolicDimsId 0000000180013340 f   Quadrature_Phase_Shift_Keying_cgxe_registry.obj
 0001:000123b0       _ssGetCompOutputPortSymbolicDimsId 00000001800133b0 f   Quadrature_Phase_Shift_Keying_cgxe_registry.obj
 0001:00012420       _ssSetCompOutputPortSymbolicDimsId 0000000180013420 f   Quadrature_Phase_Shift_Keying_cgxe_registry.obj
 0001:00012490       _ssGetDWorkSymbolicDimsId  0000000180013490 f   Quadrature_Phase_Shift_Keying_cgxe_registry.obj
 0001:00012500       _ssSetDWorkSymbolicDimsId  0000000180013500 f   Quadrature_Phase_Shift_Keying_cgxe_registry.obj
 0001:00012570       _ssGetCompDWorkSymbolicDimsId 0000000180013570 f   Quadrature_Phase_Shift_Keying_cgxe_registry.obj
 0001:000125e0       _ssSetCompDWorkSymbolicDimsId 00000001800135e0 f   Quadrature_Phase_Shift_Keying_cgxe_registry.obj
 0001:00012650       _ssCreateSLCGStringBuffer  0000000180013650 f   Quadrature_Phase_Shift_Keying_cgxe_registry.obj
 0001:000126c0       _ssAddToSLCGStringBuffer   00000001800136c0 f   Quadrature_Phase_Shift_Keying_cgxe_registry.obj
 0001:00012730       _ssGetPointerContainedData 0000000180013730 f   Quadrature_Phase_Shift_Keying_cgxe_registry.obj
 0001:000127c0       _ssGetPointerContainedDataWidth 00000001800137c0 f   Quadrature_Phase_Shift_Keying_cgxe_registry.obj
 0001:00012850       _ssRegisterDynamicArrayDataTypeFcn 0000000180013850 f   Quadrature_Phase_Shift_Keying_cgxe_registry.obj
 0001:000128f0       _ssGetDynamicArrayContainedDataCurrentWidthFcn 00000001800138f0 f   Quadrature_Phase_Shift_Keying_cgxe_registry.obj
 0001:000129c0       _ssGetDynamicArrayContainedDataFcn 00000001800139c0 f   Quadrature_Phase_Shift_Keying_cgxe_registry.obj
 0001:00012a90       _ssGetInputPortDynamicArrayDataFcn 0000000180013a90 f   Quadrature_Phase_Shift_Keying_cgxe_registry.obj
 0001:00012b50       _ssGetOutputPortDynamicArrayDataFcn 0000000180013b50 f   Quadrature_Phase_Shift_Keying_cgxe_registry.obj
 0001:00012c10       _ssGetInputPortDynamicArrayContainedDataFcn 0000000180013c10 f   Quadrature_Phase_Shift_Keying_cgxe_registry.obj
 0001:00012cd0       _ssGetOutputPortDynamicArrayContainedDataFcn 0000000180013cd0 f   Quadrature_Phase_Shift_Keying_cgxe_registry.obj
 0001:00012d90       _ssGetDynamicArrayDWorkContainedDataFcn 0000000180013d90 f   Quadrature_Phase_Shift_Keying_cgxe_registry.obj
 0001:00014970       __local_stdio_printf_options 0000000180015970 f i Quadrature_Phase_Shift_Keying_cgxe_registry.obj
 0001:00014980       _vsnprintf_l               0000000180015980 f i Quadrature_Phase_Shift_Keying_cgxe_registry.obj
 0001:00014a00       _vsprintf_l                0000000180015a00 f i Quadrature_Phase_Shift_Keying_cgxe_registry.obj
 0001:00014a50       sprintf                    0000000180015a50 f i Quadrature_Phase_Shift_Keying_cgxe_registry.obj
 0001:00014a9f       mxGetPr_800                0000000180015a9f f   libmx:libmx.dll
 0001:00014aa5       mxSetCell_800              0000000180015aa5 f   libmx:libmx.dll
 0001:00014aab       mxSetFieldByNumber_800     0000000180015aab f   libmx:libmx.dll
 0001:00014ab1       mxCreateDoubleMatrix_800   0000000180015ab1 f   libmx:libmx.dll
 0001:00014ab7       mxCreateString_800         0000000180015ab7 f   libmx:libmx.dll
 0001:00014abd       mxCreateCellMatrix_800     0000000180015abd f   libmx:libmx.dll
 0001:00014ac3       mxCreateStructMatrix_800   0000000180015ac3 f   libmx:libmx.dll
 0001:00014ac9       mxGetNaN_800               0000000180015ac9 f   libmx:libmx.dll
 0001:00014acf       mxCalloc_800               0000000180015acf f   libmx:libmx.dll
 0001:00014ad5       mxGetM_800                 0000000180015ad5 f   libmx:libmx.dll
 0001:00014adb       mxGetClassID_800           0000000180015adb f   libmx:libmx.dll
 0001:00014ae1       mxGetData_800              0000000180015ae1 f   libmx:libmx.dll
 0001:00014ae7       mxIsNumeric_800            0000000180015ae7 f   libmx:libmx.dll
 0001:00014aed       mxIsChar_800               0000000180015aed f   libmx:libmx.dll
 0001:00014af3       mxIsComplex_800            0000000180015af3 f   libmx:libmx.dll
 0001:00014af9       mxGetN_800                 0000000180015af9 f   libmx:libmx.dll
 0001:00014aff       mxSetField_800             0000000180015aff f   libmx:libmx.dll
 0001:00014b05       mxCreateNumericMatrix_800  0000000180015b05 f   libmx:libmx.dll
 0001:00014b0b       mxCreateDoubleScalar_800   0000000180015b0b f   libmx:libmx.dll
 0001:00014b11       mxGetString_800            0000000180015b11 f   libmx:libmx.dll
 0001:00014b17       mexWarnMsgTxt_800          0000000180015b17 f   libmex:libmex.dll
 0001:00014b1d       mexPrintf_800              0000000180015b1d f   libmex:libmex.dll
 0001:00014b23       mexCallMATLAB_800          0000000180015b23 f   libmex:libmex.dll
 0001:00014b29       mexUnlock_800              0000000180015b29 f   libmex:libmex.dll
 0001:00014b2f       mexIsLocked_800            0000000180015b2f f   libmex:libmex.dll
 0001:00014b35       muDoubleScalarAbs          0000000180015b35 f   libmwmathutil:libmwmathutil.dll
 0001:00014b3b       muDoubleScalarCeil         0000000180015b3b f   libmwmathutil:libmwmathutil.dll
 0001:00014b41       muDoubleScalarFloor        0000000180015b41 f   libmwmathutil:libmwmathutil.dll
 0001:00014b47       muDoubleScalarRound        0000000180015b47 f   libmwmathutil:libmwmathutil.dll
 0001:00014b4d       muDoubleScalarExp          0000000180015b4d f   libmwmathutil:libmwmathutil.dll
 0001:00014b53       muDoubleScalarLog          0000000180015b53 f   libmwmathutil:libmwmathutil.dll
 0001:00014b59       muDoubleScalarPower        0000000180015b59 f   libmwmathutil:libmwmathutil.dll
 0001:00014b5f       muDoubleScalarSqrt         0000000180015b5f f   libmwmathutil:libmwmathutil.dll
 0001:00014b65       muDoubleScalarRem          0000000180015b65 f   libmwmathutil:libmwmathutil.dll
 0001:00014b6b       muDoubleScalarIsNaN        0000000180015b6b f   libmwmathutil:libmwmathutil.dll
 0001:00014b71       muDoubleScalarIsInf        0000000180015b71 f   libmwmathutil:libmwmathutil.dll
 0001:00014b77       emlrtLicenseCheckR2022a    0000000180015b77 f   libemlrt:libemlrt.dll
 0001:00014b7d       emlrtAssign                0000000180015b7d f   libemlrt:libemlrt.dll
 0001:00014b83       emlrtCreateCharArray       0000000180015b83 f   libemlrt:libemlrt.dll
 0001:00014b89       emlrtCallMATLABR2012b      0000000180015b89 f   libemlrt:libemlrt.dll
 0001:00014b8f       emlrtInitCharArrayR2013a   0000000180015b8f f   libemlrt:libemlrt.dll
 0001:00014b95       cgxertGetInputPortSignal   0000000180015b95 f   libmwcgxert:libmwcgxert.dll
 0001:00014b9b       cgxertGetOutputPortSignal  0000000180015b9b f   libmwcgxert:libmwcgxert.dll
 0001:00014ba1       cgxertGetRunTimeParamInfoData 0000000180015ba1 f   libmwcgxert:libmwcgxert.dll
 0001:00014ba7       cgxertSetSimStateCompliance 0000000180015ba7 f   libmwcgxert:libmwcgxert.dll
 0001:00014bad       cgxertGetRuntimeInstance   0000000180015bad f   libmwcgxert:libmwcgxert.dll
 0001:00014bb3       cgxertSetRuntimeInstance   0000000180015bb3 f   libmwcgxert:libmwcgxert.dll
 0001:00014bb9       cgxertGetEMLRTCtx          0000000180015bb9 f   libmwcgxert:libmwcgxert.dll
 0001:00014bbf       cgxertSetGcb               0000000180015bbf f   libmwcgxert:libmwcgxert.dll
 0001:00014bc5       cgxertRestoreGcb           0000000180015bc5 f   libmwcgxert:libmwcgxert.dll
 0001:00014bcc       __raise_securityfailure    0000000180015bcc f   MSVCRT:gs_report.obj
 0001:00014c00       __report_gsfailure         0000000180015c00 f   MSVCRT:gs_report.obj
 0001:00014cd4       __report_rangecheckfailure 0000000180015cd4 f   MSVCRT:gs_report.obj
 0001:00014ce8       __report_securityfailure   0000000180015ce8 f   MSVCRT:gs_report.obj
 0001:00014d84       __report_securityfailureEx 0000000180015d84 f   MSVCRT:gs_report.obj
 0001:00014f78       __GSHandlerCheck           0000000180015f78 f   MSVCRT:gshandler.obj
 0001:00014f98       __GSHandlerCheckCommon     0000000180015f98 f   MSVCRT:gshandler.obj
 0001:00015010       __security_check_cookie    0000000180016010 f   MSVCRT:amdsecgs.obj
 0001:0001536c       _CRT_INIT                  000000018001636c f   MSVCRT:dll_dllmain.obj
 0001:00015374       _DllMainCRTStartup         0000000180016374 f   MSVCRT:dll_dllmain.obj
 0001:00015420       __security_init_cookie     0000000180016420 f   MSVCRT:gs_support.obj
 0001:000154cc       DllMain                    00000001800164cc f   MSVCRT:dll_dllmain_stub.obj
 0001:000154f0       ?__scrt_initialize_type_info@@YAXXZ 00000001800164f0 f   MSVCRT:tncleanup.obj
 0001:00015500       ?__scrt_uninitialize_type_info@@YAXXZ 0000000180016500 f   MSVCRT:tncleanup.obj
 0001:0001550c       __local_stdio_scanf_options 000000018001650c f i MSVCRT:default_local_stdio_options.obj
 0001:00015514       __scrt_initialize_default_local_stdio_options 0000000180016514 f   MSVCRT:default_local_stdio_options.obj
 0001:00015530       ?configure_argv@__scrt_narrow_argv_policy@@SAHXZ 0000000180016530 f i MSVCRT:utility.obj
 0001:00015590       ?initialize_environment@__scrt_narrow_environment_policy@@SAHXZ 0000000180016590 f i MSVCRT:utility.obj
 0001:000155c8       NtCurrentTeb               00000001800165c8 f i MSVCRT:utility.obj
 0001:000155d4       __scrt_acquire_startup_lock 00000001800165d4 f   MSVCRT:utility.obj
 0001:00015610       __scrt_dllmain_after_initialize_c 0000000180016610 f   MSVCRT:utility.obj
 0001:00015644       __scrt_dllmain_before_initialize_c 0000000180016644 f   MSVCRT:utility.obj
 0001:0001565c       __scrt_dllmain_crt_thread_attach 000000018001665c f   MSVCRT:utility.obj
 0001:00015684       __scrt_dllmain_crt_thread_detach 0000000180016684 f   MSVCRT:utility.obj
 0001:0001569c       __scrt_dllmain_exception_filter 000000018001669c f   MSVCRT:utility.obj
 0001:000156fc       __scrt_dllmain_uninitialize_c 00000001800166fc f   MSVCRT:utility.obj
 0001:0001572c       __scrt_dllmain_uninitialize_critical 000000018001672c f   MSVCRT:utility.obj
 0001:00015740       __scrt_initialize_crt      0000000180016740 f   MSVCRT:utility.obj
 0001:0001578c       __scrt_initialize_onexit_tables 000000018001678c f   MSVCRT:utility.obj
 0001:00015818       __scrt_is_nonwritable_in_current_image 0000000180016818 f   MSVCRT:utility.obj
 0001:000158b0       __scrt_release_startup_lock 00000001800168b0 f   MSVCRT:utility.obj
 0001:000158d4       __scrt_uninitialize_crt    00000001800168d4 f   MSVCRT:utility.obj
 0001:00015900       _onexit                    0000000180016900 f   MSVCRT:utility.obj
 0001:0001593c       at_quick_exit              000000018001693c f   MSVCRT:utility.obj
 0001:0001595c       atexit                     000000018001695c f   MSVCRT:utility.obj
 0001:00015974       __scrt_get_dyn_tls_init_callback 0000000180016974 f   MSVCRT:dyn_tls_init.obj
 0001:0001597c       __crt_debugger_hook        000000018001697c f   MSVCRT:utility_desktop.obj
 0001:00015984       __scrt_fastfail            0000000180016984 f   MSVCRT:utility_desktop.obj
 0001:00015ad0       __scrt_get_show_window_mode 0000000180016ad0 f   MSVCRT:utility_desktop.obj
 0001:00015b0c       __scrt_initialize_mta      0000000180016b0c f   MSVCRT:utility_desktop.obj
 0001:00015b14       __scrt_initialize_winrt    0000000180016b14 f   MSVCRT:utility_desktop.obj
 0001:00015b18       __scrt_is_managed_app      0000000180016b18 f   MSVCRT:utility_desktop.obj
 0001:00015b6c       __scrt_set_unhandled_exception_filter 0000000180016b6c f   MSVCRT:utility_desktop.obj
 0001:00015b7c       __scrt_stub_for_initialize_mta 0000000180016b7c f   MSVCRT:utility_desktop.obj
 0001:00015b7c       __scrt_exe_initialize_mta  0000000180016b7c f   MSVCRT:utility_desktop.obj
 0001:00015b80       __scrt_unhandled_exception_filter 0000000180016b80 f   MSVCRT:utility_desktop.obj
 0001:00015bdc       _RTC_Initialize            0000000180016bdc f   MSVCRT:initsect.obj
 0001:00015c18       _RTC_Terminate             0000000180016c18 f   MSVCRT:initsect.obj
 0001:00015c54       _guard_check_icall_nop     0000000180016c54 f i MSVCRT:guard_support.obj
 0001:00015c58       ReadNoFence64              0000000180016c58 f i MSVCRT:guard_support.obj
 0001:00015c5c       ReadPointerNoFence         0000000180016c5c f i MSVCRT:guard_support.obj
 0001:00015c60       __castguard_check_failure_debugbreak 0000000180016c60 f i MSVCRT:guard_support.obj
 0001:00015c7c       __castguard_check_failure_fastfail 0000000180016c7c f i MSVCRT:guard_support.obj
 0001:00015ca0       __castguard_check_failure_nop 0000000180016ca0 f i MSVCRT:guard_support.obj
 0001:00015ca4       __castguard_check_failure_os_handled 0000000180016ca4 f i MSVCRT:guard_support.obj
 0001:00015d04       __castguard_slow_path_check_debugbreak 0000000180016d04 f i MSVCRT:guard_support.obj
 0001:00015d38       __castguard_slow_path_check_fastfail 0000000180016d38 f i MSVCRT:guard_support.obj
 0001:00015d74       __castguard_slow_path_check_nop 0000000180016d74 f i MSVCRT:guard_support.obj
 0001:00015d78       __castguard_slow_path_check_os_handled 0000000180016d78 f i MSVCRT:guard_support.obj
 0001:00015dec       _guard_icall_checks_enforced 0000000180016dec f i MSVCRT:guard_support.obj
 0001:00015e04       _guard_rf_checks_enforced  0000000180016e04 f i MSVCRT:guard_support.obj
 0001:00015e08       __isa_available_init       0000000180016e08 f   MSVCRT:cpu_disp.obj
 0001:00015fac       _get_startup_argv_mode     0000000180016fac f   MSVCRT:argv_mode.obj
 0001:00015fb4       __scrt_is_ucrt_dll_in_use  0000000180016fb4 f   MSVCRT:ucrt_detection.obj
 0001:00015fc0       RtlCaptureContext          0000000180016fc0 f   kernel32:KERNEL32.dll
 0001:00015fc6       RtlLookupFunctionEntry     0000000180016fc6 f   kernel32:KERNEL32.dll
 0001:00015fcc       RtlVirtualUnwind           0000000180016fcc f   kernel32:KERNEL32.dll
 0001:00015fd2       UnhandledExceptionFilter   0000000180016fd2 f   kernel32:KERNEL32.dll
 0001:00015fd8       SetUnhandledExceptionFilter 0000000180016fd8 f   kernel32:KERNEL32.dll
 0001:00015fde       GetCurrentProcess          0000000180016fde f   kernel32:KERNEL32.dll
 0001:00015fe4       TerminateProcess           0000000180016fe4 f   kernel32:KERNEL32.dll
 0001:00015fea       IsProcessorFeaturePresent  0000000180016fea f   kernel32:KERNEL32.dll
 0001:00015ff0       QueryPerformanceCounter    0000000180016ff0 f   kernel32:KERNEL32.dll
 0001:00015ff6       GetCurrentProcessId        0000000180016ff6 f   kernel32:KERNEL32.dll
 0001:00015ffc       GetCurrentThreadId         0000000180016ffc f   kernel32:KERNEL32.dll
 0001:00016002       GetSystemTimeAsFileTime    0000000180017002 f   kernel32:KERNEL32.dll
 0001:00016008       DisableThreadLibraryCalls  0000000180017008 f   kernel32:KERNEL32.dll
 0001:0001600e       InitializeSListHead        000000018001700e f   kernel32:KERNEL32.dll
 0001:00016014       IsDebuggerPresent          0000000180017014 f   kernel32:KERNEL32.dll
 0001:0001601a       GetStartupInfoW            000000018001701a f   kernel32:KERNEL32.dll
 0001:00016020       GetModuleHandleW           0000000180017020 f   kernel32:KERNEL32.dll
 0001:00016026       memcpy                     0000000180017026 f   vcruntime:VCRUNTIME140.dll
 0001:0001602c       __C_specific_handler       000000018001702c f   vcruntime:VCRUNTIME140.dll
 0001:00016032       __std_type_info_destroy_list 0000000180017032 f   vcruntime:VCRUNTIME140.dll
 0001:00016038       __current_exception        0000000180017038 f   vcruntime:VCRUNTIME140.dll
 0001:0001603e       __current_exception_context 000000018001703e f   vcruntime:VCRUNTIME140.dll
 0001:00016044       memset                     0000000180017044 f   vcruntime:VCRUNTIME140.dll
 0001:0001604a       calloc                     000000018001704a f   ucrt:api-ms-win-crt-heap-l1-1-0.dll
 0001:00016050       free                       0000000180017050 f   ucrt:api-ms-win-crt-heap-l1-1-0.dll
 0001:00016056       _localtime64               0000000180017056 f   ucrt:api-ms-win-crt-time-l1-1-0.dll
 0001:0001605c       _time64                    000000018001705c f   ucrt:api-ms-win-crt-time-l1-1-0.dll
 0001:00016062       strcmp                     0000000180017062 f   ucrt:api-ms-win-crt-string-l1-1-0.dll
 0001:00016068       strlen                     0000000180017068 f   ucrt:api-ms-win-crt-string-l1-1-0.dll
 0001:0001606e       __stdio_common_vsprintf    000000018001706e f   ucrt:api-ms-win-crt-stdio-l1-1-0.dll
 0001:00016074       malloc                     0000000180017074 f   ucrt:api-ms-win-crt-heap-l1-1-0.dll
 0001:0001607a       _initterm                  000000018001707a f   ucrt:api-ms-win-crt-runtime-l1-1-0.dll
 0001:00016080       _initterm_e                0000000180017080 f   ucrt:api-ms-win-crt-runtime-l1-1-0.dll
 0001:00016086       _seh_filter_dll            0000000180017086 f   ucrt:api-ms-win-crt-runtime-l1-1-0.dll
 0001:0001608c       _configure_narrow_argv     000000018001708c f   ucrt:api-ms-win-crt-runtime-l1-1-0.dll
 0001:00016092       _initialize_narrow_environment 0000000180017092 f   ucrt:api-ms-win-crt-runtime-l1-1-0.dll
 0001:00016098       _initialize_onexit_table   0000000180017098 f   ucrt:api-ms-win-crt-runtime-l1-1-0.dll
 0001:0001609e       _register_onexit_function  000000018001709e f   ucrt:api-ms-win-crt-runtime-l1-1-0.dll
 0001:000160a4       _execute_onexit_table      00000001800170a4 f   ucrt:api-ms-win-crt-runtime-l1-1-0.dll
 0001:000160aa       _crt_atexit                00000001800170aa f   ucrt:api-ms-win-crt-runtime-l1-1-0.dll
 0001:000160b0       _crt_at_quick_exit         00000001800170b0 f   ucrt:api-ms-win-crt-runtime-l1-1-0.dll
 0001:000160b6       _cexit                     00000001800170b6 f   ucrt:api-ms-win-crt-runtime-l1-1-0.dll
 0001:000160bc       terminate                  00000001800170bc f   ucrt:api-ms-win-crt-runtime-l1-1-0.dll
 0001:000160c4       __scrt_stub_for_acrt_initialize 00000001800170c4 f   MSVCRT:ucrt_stubs.obj
 0001:000160c4       __vcrt_initialize          00000001800170c4 f   MSVCRT:ucrt_stubs.obj
 0001:000160c4       __acrt_initialize          00000001800170c4 f   MSVCRT:ucrt_stubs.obj
 0001:000160c8       __scrt_stub_for_acrt_thread_attach 00000001800170c8 f   MSVCRT:ucrt_stubs.obj
 0001:000160c8       __vcrt_thread_attach       00000001800170c8 f   MSVCRT:ucrt_stubs.obj
 0001:000160c8       __acrt_thread_attach       00000001800170c8 f   MSVCRT:ucrt_stubs.obj
 0001:000160cc       __scrt_stub_for_acrt_thread_detach 00000001800170cc f   MSVCRT:ucrt_stubs.obj
 0001:000160cc       __vcrt_thread_detach       00000001800170cc f   MSVCRT:ucrt_stubs.obj
 0001:000160cc       __acrt_thread_detach       00000001800170cc f   MSVCRT:ucrt_stubs.obj
 0001:000160d0       __vcrt_uninitialize        00000001800170d0 f   MSVCRT:ucrt_stubs.obj
 0001:000160d0       __scrt_stub_for_acrt_uninitialize 00000001800170d0 f   MSVCRT:ucrt_stubs.obj
 0001:000160d0       __acrt_uninitialize        00000001800170d0 f   MSVCRT:ucrt_stubs.obj
 0001:000160d4       __vcrt_uninitialize_critical 00000001800170d4 f   MSVCRT:ucrt_stubs.obj
 0001:000160d4       __scrt_stub_for_acrt_uninitialize_critical 00000001800170d4 f   MSVCRT:ucrt_stubs.obj
 0001:000160d4       __acrt_uninitialize_critical 00000001800170d4 f   MSVCRT:ucrt_stubs.obj
 0001:000160d8       _is_c_termination_complete 00000001800170d8 f   MSVCRT:ucrt_stubs.obj
 0001:000160d8       __scrt_stub_for_is_c_termination_complete 00000001800170d8 f   MSVCRT:ucrt_stubs.obj
 0001:000160f0       _guard_dispatch_icall_nop  00000001800170f0 f   MSVCRT:guard_dispatch.obj
 0001:00016110       _guard_xfg_dispatch_icall_nop 0000000180017110 f   MSVCRT:guard_xfg_dispatch.obj
 0002:00000000       __imp_GetStartupInfoW      0000000180018000     kernel32:KERNEL32.dll
 0002:00000008       __imp_IsDebuggerPresent    0000000180018008     kernel32:KERNEL32.dll
 0002:00000010       __imp_InitializeSListHead  0000000180018010     kernel32:KERNEL32.dll
 0002:00000018       __imp_DisableThreadLibraryCalls 0000000180018018     kernel32:KERNEL32.dll
 0002:00000020       __imp_GetSystemTimeAsFileTime 0000000180018020     kernel32:KERNEL32.dll
 0002:00000028       __imp_GetCurrentThreadId   0000000180018028     kernel32:KERNEL32.dll
 0002:00000030       __imp_GetCurrentProcessId  0000000180018030     kernel32:KERNEL32.dll
 0002:00000038       __imp_QueryPerformanceCounter 0000000180018038     kernel32:KERNEL32.dll
 0002:00000040       __imp_IsProcessorFeaturePresent 0000000180018040     kernel32:KERNEL32.dll
 0002:00000048       __imp_TerminateProcess     0000000180018048     kernel32:KERNEL32.dll
 0002:00000050       __imp_GetCurrentProcess    0000000180018050     kernel32:KERNEL32.dll
 0002:00000058       __imp_SetUnhandledExceptionFilter 0000000180018058     kernel32:KERNEL32.dll
 0002:00000060       __imp_UnhandledExceptionFilter 0000000180018060     kernel32:KERNEL32.dll
 0002:00000068       __imp_RtlVirtualUnwind     0000000180018068     kernel32:KERNEL32.dll
 0002:00000070       __imp_RtlLookupFunctionEntry 0000000180018070     kernel32:KERNEL32.dll
 0002:00000078       __imp_RtlCaptureContext    0000000180018078     kernel32:KERNEL32.dll
 0002:00000080       __imp_GetModuleHandleW     0000000180018080     kernel32:KERNEL32.dll
 0002:00000088       \177KERNEL32_NULL_THUNK_DATA 0000000180018088     kernel32:KERNEL32.dll
 0002:00000090       __imp_memcpy               0000000180018090     vcruntime:VCRUNTIME140.dll
 0002:00000098       __imp___C_specific_handler 0000000180018098     vcruntime:VCRUNTIME140.dll
 0002:000000a0       __imp___std_type_info_destroy_list 00000001800180a0     vcruntime:VCRUNTIME140.dll
 0002:000000a8       __imp___current_exception  00000001800180a8     vcruntime:VCRUNTIME140.dll
 0002:000000b0       __imp___current_exception_context 00000001800180b0     vcruntime:VCRUNTIME140.dll
 0002:000000b8       __imp_memset               00000001800180b8     vcruntime:VCRUNTIME140.dll
 0002:000000c0       \177VCRUNTIME140_NULL_THUNK_DATA 00000001800180c0     vcruntime:VCRUNTIME140.dll
 0002:000000c8       __imp_malloc               00000001800180c8     ucrt:api-ms-win-crt-heap-l1-1-0.dll
 0002:000000d0       __imp_calloc               00000001800180d0     ucrt:api-ms-win-crt-heap-l1-1-0.dll
 0002:000000d8       __imp_free                 00000001800180d8     ucrt:api-ms-win-crt-heap-l1-1-0.dll
 0002:000000e0       \177api-ms-win-crt-heap-l1-1-0_NULL_THUNK_DATA 00000001800180e0     ucrt:api-ms-win-crt-heap-l1-1-0.dll
 0002:000000e8       __imp__configure_narrow_argv 00000001800180e8     ucrt:api-ms-win-crt-runtime-l1-1-0.dll
 0002:000000f0       __imp__initialize_narrow_environment 00000001800180f0     ucrt:api-ms-win-crt-runtime-l1-1-0.dll
 0002:000000f8       __imp__initialize_onexit_table 00000001800180f8     ucrt:api-ms-win-crt-runtime-l1-1-0.dll
 0002:00000100       __imp__initterm_e          0000000180018100     ucrt:api-ms-win-crt-runtime-l1-1-0.dll
 0002:00000108       __imp__initterm            0000000180018108     ucrt:api-ms-win-crt-runtime-l1-1-0.dll
 0002:00000110       __imp__execute_onexit_table 0000000180018110     ucrt:api-ms-win-crt-runtime-l1-1-0.dll
 0002:00000118       __imp__crt_atexit          0000000180018118     ucrt:api-ms-win-crt-runtime-l1-1-0.dll
 0002:00000120       __imp__crt_at_quick_exit   0000000180018120     ucrt:api-ms-win-crt-runtime-l1-1-0.dll
 0002:00000128       __imp__cexit               0000000180018128     ucrt:api-ms-win-crt-runtime-l1-1-0.dll
 0002:00000130       __imp__seh_filter_dll      0000000180018130     ucrt:api-ms-win-crt-runtime-l1-1-0.dll
 0002:00000138       __imp_terminate            0000000180018138     ucrt:api-ms-win-crt-runtime-l1-1-0.dll
 0002:00000140       __imp__register_onexit_function 0000000180018140     ucrt:api-ms-win-crt-runtime-l1-1-0.dll
 0002:00000148       \177api-ms-win-crt-runtime-l1-1-0_NULL_THUNK_DATA 0000000180018148     ucrt:api-ms-win-crt-runtime-l1-1-0.dll
 0002:00000150       __imp___stdio_common_vsprintf 0000000180018150     ucrt:api-ms-win-crt-stdio-l1-1-0.dll
 0002:00000158       \177api-ms-win-crt-stdio-l1-1-0_NULL_THUNK_DATA 0000000180018158     ucrt:api-ms-win-crt-stdio-l1-1-0.dll
 0002:00000160       __imp_strcmp               0000000180018160     ucrt:api-ms-win-crt-string-l1-1-0.dll
 0002:00000168       __imp_strlen               0000000180018168     ucrt:api-ms-win-crt-string-l1-1-0.dll
 0002:00000170       \177api-ms-win-crt-string-l1-1-0_NULL_THUNK_DATA 0000000180018170     ucrt:api-ms-win-crt-string-l1-1-0.dll
 0002:00000178       __imp__time64              0000000180018178     ucrt:api-ms-win-crt-time-l1-1-0.dll
 0002:00000180       __imp__localtime64         0000000180018180     ucrt:api-ms-win-crt-time-l1-1-0.dll
 0002:00000188       \177api-ms-win-crt-time-l1-1-0_NULL_THUNK_DATA 0000000180018188     ucrt:api-ms-win-crt-time-l1-1-0.dll
 0002:00000190       __imp_emlrtCreateCharArray 0000000180018190     libemlrt:libemlrt.dll
 0002:00000198       __imp_emlrtInitCharArrayR2013a 0000000180018198     libemlrt:libemlrt.dll
 0002:000001a0       __imp_emlrtAssign          00000001800181a0     libemlrt:libemlrt.dll
 0002:000001a8       __imp_emlrtLicenseCheckR2022a 00000001800181a8     libemlrt:libemlrt.dll
 0002:000001b0       __imp_emlrtCallMATLABR2012b 00000001800181b0     libemlrt:libemlrt.dll
 0002:000001b8       \177libemlrt_NULL_THUNK_DATA 00000001800181b8     libemlrt:libemlrt.dll
 0002:000001c0       __imp_mexUnlock_800        00000001800181c0     libmex:libmex.dll
 0002:000001c8       __imp_mexWarnMsgTxt_800    00000001800181c8     libmex:libmex.dll
 0002:000001d0       __imp_mexIsLocked_800      00000001800181d0     libmex:libmex.dll
 0002:000001d8       __imp_mexCallMATLAB_800    00000001800181d8     libmex:libmex.dll
 0002:000001e0       __imp_mexPrintf_800        00000001800181e0     libmex:libmex.dll
 0002:000001e8       \177libmex_NULL_THUNK_DATA 00000001800181e8     libmex:libmex.dll
 0002:000001f0       __imp_cgxertSetGcb         00000001800181f0     libmwcgxert:libmwcgxert.dll
 0002:000001f8       __imp_cgxertGetEMLRTCtx    00000001800181f8     libmwcgxert:libmwcgxert.dll
 0002:00000200       __imp_cgxertSetRuntimeInstance 0000000180018200     libmwcgxert:libmwcgxert.dll
 0002:00000208       __imp_cgxertGetRuntimeInstance 0000000180018208     libmwcgxert:libmwcgxert.dll
 0002:00000210       __imp_cgxertSetSimStateCompliance 0000000180018210     libmwcgxert:libmwcgxert.dll
 0002:00000218       __imp_cgxertGetOutputPortSignal 0000000180018218     libmwcgxert:libmwcgxert.dll
 0002:00000220       __imp_cgxertGetInputPortSignal 0000000180018220     libmwcgxert:libmwcgxert.dll
 0002:00000228       __imp_cgxertRestoreGcb     0000000180018228     libmwcgxert:libmwcgxert.dll
 0002:00000230       __imp_cgxertGetRunTimeParamInfoData 0000000180018230     libmwcgxert:libmwcgxert.dll
 0002:00000238       \177libmwcgxert_NULL_THUNK_DATA 0000000180018238     libmwcgxert:libmwcgxert.dll
 0002:00000240       __imp_muDoubleScalarCeil   0000000180018240     libmwmathutil:libmwmathutil.dll
 0002:00000248       __imp_muDoubleScalarIsInf  0000000180018248     libmwmathutil:libmwmathutil.dll
 0002:00000250       __imp_muDoubleScalarIsNaN  0000000180018250     libmwmathutil:libmwmathutil.dll
 0002:00000258       __imp_muDoubleScalarRem    0000000180018258     libmwmathutil:libmwmathutil.dll
 0002:00000260       __imp_muDoubleScalarSqrt   0000000180018260     libmwmathutil:libmwmathutil.dll
 0002:00000268       __imp_muDoubleScalarPower  0000000180018268     libmwmathutil:libmwmathutil.dll
 0002:00000270       __imp_muDoubleScalarLog    0000000180018270     libmwmathutil:libmwmathutil.dll
 0002:00000278       __imp_muDoubleScalarExp    0000000180018278     libmwmathutil:libmwmathutil.dll
 0002:00000280       __imp_muDoubleScalarRound  0000000180018280     libmwmathutil:libmwmathutil.dll
 0002:00000288       __imp_muDoubleScalarFloor  0000000180018288     libmwmathutil:libmwmathutil.dll
 0002:00000290       __imp_muDoubleScalarAbs    0000000180018290     libmwmathutil:libmwmathutil.dll
 0002:00000298       \177libmwmathutil_NULL_THUNK_DATA 0000000180018298     libmwmathutil:libmwmathutil.dll
 0002:000002a0       __imp_mxSetCell_800        00000001800182a0     libmx:libmx.dll
 0002:000002a8       __imp_mxGetString_800      00000001800182a8     libmx:libmx.dll
 0002:000002b0       __imp_mxCreateDoubleScalar_800 00000001800182b0     libmx:libmx.dll
 0002:000002b8       __imp_mxCreateNumericMatrix_800 00000001800182b8     libmx:libmx.dll
 0002:000002c0       __imp_mxSetField_800       00000001800182c0     libmx:libmx.dll
 0002:000002c8       __imp_mxGetN_800           00000001800182c8     libmx:libmx.dll
 0002:000002d0       __imp_mxIsComplex_800      00000001800182d0     libmx:libmx.dll
 0002:000002d8       __imp_mxIsChar_800         00000001800182d8     libmx:libmx.dll
 0002:000002e0       __imp_mxIsNumeric_800      00000001800182e0     libmx:libmx.dll
 0002:000002e8       __imp_mxGetData_800        00000001800182e8     libmx:libmx.dll
 0002:000002f0       __imp_mxGetClassID_800     00000001800182f0     libmx:libmx.dll
 0002:000002f8       __imp_mxGetM_800           00000001800182f8     libmx:libmx.dll
 0002:00000300       __imp_mxCalloc_800         0000000180018300     libmx:libmx.dll
 0002:00000308       __imp_mxGetNaN_800         0000000180018308     libmx:libmx.dll
 0002:00000310       __imp_mxCreateStructMatrix_800 0000000180018310     libmx:libmx.dll
 0002:00000318       __imp_mxCreateCellMatrix_800 0000000180018318     libmx:libmx.dll
 0002:00000320       __imp_mxCreateString_800   0000000180018320     libmx:libmx.dll
 0002:00000328       __imp_mxCreateDoubleMatrix_800 0000000180018328     libmx:libmx.dll
 0002:00000330       __imp_mxSetFieldByNumber_800 0000000180018330     libmx:libmx.dll
 0002:00000338       __imp_mxGetPr_800          0000000180018338     libmx:libmx.dll
 0002:00000340       \177libmx_NULL_THUNK_DATA  0000000180018340     libmx:libmx.dll
 0002:00000348       __guard_check_icall_fptr   0000000180018348     MSVCRT:guard_support.obj
 0002:00000350       __guard_xfg_check_icall_fptr 0000000180018350     MSVCRT:guard_support.obj
 0002:00000358       __guard_dispatch_icall_fptr 0000000180018358     MSVCRT:guard_support.obj
 0002:00000360       __guard_xfg_dispatch_icall_fptr 0000000180018360     MSVCRT:guard_support.obj
 0002:00000368       __guard_xfg_table_dispatch_icall_fptr 0000000180018368     MSVCRT:guard_support.obj
 0002:00000370       __xc_a                     0000000180018370     MSVCRT:initializers.obj
 0002:00000378       __xc_z                     0000000180018378     MSVCRT:initializers.obj
 0002:00000380       __xi_a                     0000000180018380     MSVCRT:initializers.obj
 0002:00000388       __xi_z                     0000000180018388     MSVCRT:initializers.obj
 0002:00000390       __xp_a                     0000000180018390     MSVCRT:initializers.obj
 0002:00000398       __xp_z                     0000000180018398     MSVCRT:initializers.obj
 0002:000003a0       __xt_a                     00000001800183a0     MSVCRT:initializers.obj
 0002:000003a8       __xt_z                     00000001800183a8     MSVCRT:initializers.obj
 0002:000004e0       __real@0000000000000000    00000001800184e0     m_Jf2lRQWLrP2B1g4UrAzlsF.obj
 0002:000004e8       __real@3ca0000000000000    00000001800184e8     m_Jf2lRQWLrP2B1g4UrAzlsF.obj
 0002:000004f0       __real@3cb0000000000000    00000001800184f0     m_Jf2lRQWLrP2B1g4UrAzlsF.obj
 0002:000004f8       __real@3defffffffffffff    00000001800184f8     m_Jf2lRQWLrP2B1g4UrAzlsF.obj
 0002:00000500       __real@3e00000000000000    0000000180018500     m_Jf2lRQWLrP2B1g4UrAzlsF.obj
 0002:00000508       __real@3e00000000200000    0000000180018508     m_Jf2lRQWLrP2B1g4UrAzlsF.obj
 0002:00000510       __real@3f940d92e5a05850    0000000180018510     m_Jf2lRQWLrP2B1g4UrAzlsF.obj
 0002:00000518       __real@3fd183aa6c20e8bc    0000000180018518     m_Jf2lRQWLrP2B1g4UrAzlsF.obj
 0002:00000520       __real@3fdf39bd90efa6ec    0000000180018520     m_Jf2lRQWLrP2B1g4UrAzlsF.obj
 0002:00000528       __real@3fe0000000000000    0000000180018528     m_Jf2lRQWLrP2B1g4UrAzlsF.obj
 0002:00000530       __real@3fef01751555d29a    0000000180018530     m_Jf2lRQWLrP2B1g4UrAzlsF.obj
 0002:00000538       __real@3ff0000000000000    0000000180018538     m_Jf2lRQWLrP2B1g4UrAzlsF.obj
 0002:00000540       __real@3ff4d1b4fe79ee03    0000000180018540     m_Jf2lRQWLrP2B1g4UrAzlsF.obj
 0002:00000548       __real@4000000000000000    0000000180018548     m_Jf2lRQWLrP2B1g4UrAzlsF.obj
 0002:00000550       __real@40063748a159817c    0000000180018550     m_Jf2lRQWLrP2B1g4UrAzlsF.obj
 0002:00000558       __real@400d3bb48209ad36    0000000180018558     m_Jf2lRQWLrP2B1g4UrAzlsF.obj
 0002:00000560       __real@4010000000000000    0000000180018560     m_Jf2lRQWLrP2B1g4UrAzlsF.obj
 0002:00000568       __real@4024000000000000    0000000180018568     m_Jf2lRQWLrP2B1g4UrAzlsF.obj
 0002:00000570       __real@4028c070b8cfbfc6    0000000180018570     m_Jf2lRQWLrP2B1g4UrAzlsF.obj
 0002:00000578       __real@40295aa79bbadc0a    0000000180018578     m_Jf2lRQWLrP2B1g4UrAzlsF.obj
 0002:00000580       __real@404e000000000000    0000000180018580     m_Jf2lRQWLrP2B1g4UrAzlsF.obj
 0002:00000588       __real@4059000000000000    0000000180018588     m_Jf2lRQWLrP2B1g4UrAzlsF.obj
 0002:00000590       __real@4076d00000000000    0000000180018590     m_Jf2lRQWLrP2B1g4UrAzlsF.obj
 0002:00000598       __real@4079000000000000    0000000180018598     m_Jf2lRQWLrP2B1g4UrAzlsF.obj
 0002:000005a0       __real@40ac200000000000    00000001800185a0     m_Jf2lRQWLrP2B1g4UrAzlsF.obj
 0002:000005a8       __real@40f5180000000000    00000001800185a8     m_Jf2lRQWLrP2B1g4UrAzlsF.obj
 0002:000005b0       __real@41607ac000000000    00000001800185b0     m_Jf2lRQWLrP2B1g4UrAzlsF.obj
 0002:000005b8       __real@4170000000000000    00000001800185b8     m_Jf2lRQWLrP2B1g4UrAzlsF.obj
 0002:000005c0       __real@4190000000000000    00000001800185c0     m_Jf2lRQWLrP2B1g4UrAzlsF.obj
 0002:000005c8       __real@41dfffffffc00000    00000001800185c8     m_Jf2lRQWLrP2B1g4UrAzlsF.obj
 0002:000005d0       __real@41f0000000000000    00000001800185d0     m_Jf2lRQWLrP2B1g4UrAzlsF.obj
 0002:000005d8       __real@bfe0000000000000    00000001800185d8     m_Jf2lRQWLrP2B1g4UrAzlsF.obj
 0002:000005e0       __real@c000000000000000    00000001800185e0     m_Jf2lRQWLrP2B1g4UrAzlsF.obj
 0002:000005f0       __xmm@80000000000000008000000000000000 00000001800185f0     m_Jf2lRQWLrP2B1g4UrAzlsF.obj
 0002:00000730       __real@3ff6a09e667f3bcd    0000000180018730     m_UGsKOob1SZ1GnhcskvCSLB.obj
 0002:00000738       DYNAMIC_DIMENSION_DEF      0000000180018738     Quadrature_Phase_Shift_Keying_cgxe_registry.obj
 0002:00000750       __real@41602cbca0000000    0000000180018750     Quadrature_Phase_Shift_Keying_cgxe_registry.obj
 0002:00000758       __real@4193352670000000    0000000180018758     Quadrature_Phase_Shift_Keying_cgxe_registry.obj
 0002:00000760       __real@41c2a4262c000000    0000000180018760     Quadrature_Phase_Shift_Keying_cgxe_registry.obj
 0002:00000768       __real@41c47871cf000000    0000000180018768     Quadrature_Phase_Shift_Keying_cgxe_registry.obj
 0002:00000770       __real@41cf1f137a800000    0000000180018770     Quadrature_Phase_Shift_Keying_cgxe_registry.obj
 0002:00000778       __real@41d0d301d1000000    0000000180018778     Quadrature_Phase_Shift_Keying_cgxe_registry.obj
 0002:00000780       __real@41d5a495f8000000    0000000180018780     Quadrature_Phase_Shift_Keying_cgxe_registry.obj
 0002:00000788       __real@41db319962000000    0000000180018788     Quadrature_Phase_Shift_Keying_cgxe_registry.obj
 0002:00000790       __real@41dc67f553c00000    0000000180018790     Quadrature_Phase_Shift_Keying_cgxe_registry.obj
 0002:00000798       __real@41dc684f4ac00000    0000000180018798     Quadrature_Phase_Shift_Keying_cgxe_registry.obj
 0002:000007a0       __real@41e13401bfc00000    00000001800187a0     Quadrature_Phase_Shift_Keying_cgxe_registry.obj
 0002:000007a8       __real@41e2069ed9a00000    00000001800187a8     Quadrature_Phase_Shift_Keying_cgxe_registry.obj
 0002:000007b0       __real@41e5b0b712600000    00000001800187b0     Quadrature_Phase_Shift_Keying_cgxe_registry.obj
 0002:000007b8       __real@41e6c33c46200000    00000001800187b8     Quadrature_Phase_Shift_Keying_cgxe_registry.obj
 0002:000007c0       __real@41ea363205200000    00000001800187c0     Quadrature_Phase_Shift_Keying_cgxe_registry.obj
 0002:000007c8       __real@41ed73dcf2e00000    00000001800187c8     Quadrature_Phase_Shift_Keying_cgxe_registry.obj
 0002:000007d0       __real@41efeada80200000    00000001800187d0     Quadrature_Phase_Shift_Keying_cgxe_registry.obj
 0002:000007d8       __real@bff0000000000000    00000001800187d8     Quadrature_Phase_Shift_Keying_cgxe_registry.obj
 0002:000007f0       _pDefaultRawDllMain        00000001800187f0     MSVCRT:dll_dllmain.obj
 0002:000007f0       _pRawDllMain               00000001800187f0     MSVCRT:dll_dllmain.obj
 0002:00000800       __xmm@ffffffffffffffffffffffffffffffff 0000000180018800     MSVCRT:utility.obj
 0002:00000830       _load_config_used          0000000180018830     MSVCRT:loadcfg.obj
 0002:00000980       __CastGuardVftablesStart   0000000180018980     MSVCRT:guard_support.obj
 0002:00000988       __CastGuardVftablesEnd     0000000180018988     MSVCRT:guard_support.obj
 0002:00000990       __volatile_metadata        0000000180018990     <linker-defined>
 0002:00000d40       __rtc_iaa                  0000000180018d40     MSVCRT:initsect.obj
 0002:00000d48       __rtc_izz                  0000000180018d48     MSVCRT:initsect.obj
 0002:00000d50       __rtc_taa                  0000000180018d50     MSVCRT:initsect.obj
 0002:00000d58       __rtc_tzz                  0000000180018d58     MSVCRT:initsect.obj
 0002:0000180c       __IMPORT_DESCRIPTOR_libmx  000000018001980c     libmx:libmx.dll
 0002:00001820       __IMPORT_DESCRIPTOR_libmex 0000000180019820     libmex:libmex.dll
 0002:00001834       __IMPORT_DESCRIPTOR_libmwmathutil 0000000180019834     libmwmathutil:libmwmathutil.dll
 0002:00001848       __IMPORT_DESCRIPTOR_libemlrt 0000000180019848     libemlrt:libemlrt.dll
 0002:0000185c       __IMPORT_DESCRIPTOR_libmwcgxert 000000018001985c     libmwcgxert:libmwcgxert.dll
 0002:00001870       __IMPORT_DESCRIPTOR_KERNEL32 0000000180019870     kernel32:KERNEL32.dll
 0002:00001884       __IMPORT_DESCRIPTOR_VCRUNTIME140 0000000180019884     vcruntime:VCRUNTIME140.dll
 0002:00001898       __IMPORT_DESCRIPTOR_api-ms-win-crt-heap-l1-1-0 0000000180019898     ucrt:api-ms-win-crt-heap-l1-1-0.dll
 0002:000018ac       __IMPORT_DESCRIPTOR_api-ms-win-crt-time-l1-1-0 00000001800198ac     ucrt:api-ms-win-crt-time-l1-1-0.dll
 0002:000018c0       __IMPORT_DESCRIPTOR_api-ms-win-crt-string-l1-1-0 00000001800198c0     ucrt:api-ms-win-crt-string-l1-1-0.dll
 0002:000018d4       __IMPORT_DESCRIPTOR_api-ms-win-crt-stdio-l1-1-0 00000001800198d4     ucrt:api-ms-win-crt-stdio-l1-1-0.dll
 0002:000018e8       __IMPORT_DESCRIPTOR_api-ms-win-crt-runtime-l1-1-0 00000001800198e8     ucrt:api-ms-win-crt-runtime-l1-1-0.dll
 0002:000018fc       __NULL_IMPORT_DESCRIPTOR   00000001800198fc     libmx:libmx.dll
 0003:000085a0       DYNAMIC_DIMENSION          00000001800235a0     Quadrature_Phase_Shift_Keying_cgxe_registry.obj
 0003:0000a850       __security_cookie_complement 0000000180025850     MSVCRT:gs_cookie.obj
 0003:0000a858       __security_cookie          0000000180025858     MSVCRT:gs_cookie.obj
 0003:0000a860       _fltused                   0000000180025860     MSVCRT:fltused.obj
 0003:0000a864       __scrt_native_dllmain_reason 0000000180025864     MSVCRT:utility.obj
 0003:0000a868       __isa_available            0000000180025868     MSVCRT:cpu_disp.obj
 0003:0000a86c       __isa_enabled              000000018002586c     MSVCRT:cpu_disp.obj
 0003:0000a870       __memcpy_nt_iters          0000000180025870     MSVCRT:cpu_disp.obj
 0003:0000a878       __memset_nt_iters          0000000180025878     MSVCRT:cpu_disp.obj
 0003:0000a880       __scrt_ucrt_dll_is_in_use  0000000180025880     MSVCRT:ucrt_stubs.obj
 0003:0000ae40       ?__type_info_root_node@@3U__type_info_node@@A 0000000180025e40     MSVCRT:tncleanup.obj
 0003:0000ae50       ?_OptionsStorage@?1??__local_stdio_printf_options@@9@4_KA 0000000180025e50     MSVCRT:default_local_stdio_options.obj
 0003:0000ae58       ?_OptionsStorage@?1??__local_stdio_scanf_options@@9@4_KA 0000000180025e58     MSVCRT:default_local_stdio_options.obj
 0003:0000ae60       __scrt_current_native_startup_state 0000000180025e60     MSVCRT:utility.obj
 0003:0000ae68       __scrt_native_startup_lock 0000000180025e68     MSVCRT:utility.obj
 0003:0000aea8       __scrt_debugger_hook_flag  0000000180025ea8     MSVCRT:utility_desktop.obj
 0003:0000aeb0       __castguard_check_failure_os_handled_fptr 0000000180025eb0     MSVCRT:guard_support.obj
 0003:0000aeb8       __favor                    0000000180025eb8     MSVCRT:cpu_disp.obj
 0003:0000aec0       ?_OptionsStorage@?1??__local_stdio_printf_options@@9@9 0000000180025ec0     <common>
 0003:0000aec8       __dyn_tls_init_callback    0000000180025ec8     <common>

 entry point at        0001:00015374

 Static symbols

 0000:00000000       .debug$S                   0000000180000000     Quadrature_Phase_Shift_Keying_cgxe.exp
 0000:fffd9000       _volmd                     0000000180000000     Quadrature_Phase_Shift_Keying_cgxe_registry.obj
 0000:fffd9000       _volmd                     0000000180000000     m_Jf2lRQWLrP2B1g4UrAzlsF.obj
 0000:fffd9000       _volmd                     0000000180000000     m_UGsKOob1SZ1GnhcskvCSLB.obj
 0000:fffd9000       _volmd                     0000000180000000     MSVCRT:cpu_disp.obj
 0002:fffe8000       __guard_ehcont_?dllmain_dispatch@@YAHQEAUHINSTANCE__@@KQEAX@Z 0000000180000000     MSVCRT:dll_dllmain.obj
 0002:fffe8000       __guard_fids_?dllmain_dispatch@@YAHQEAUHINSTANCE__@@KQEAX@Z 0000000180000000     MSVCRT:dll_dllmain.obj
 0000:fffd9000       _volmd                     0000000180000000     MSVCRT:gs_report.obj
 0000:fffd9000       _volmd                     0000000180000000     MSVCRT:gs_report.obj
 0000:fffd9000       _volmd                     0000000180000000     MSVCRT:gs_report.obj
 0002:fffe8000       __guard_fids__             0000000180000000     MSVCRT:guard_support.obj
 0002:fffe8000       __guard_fids__             0000000180000000     MSVCRT:guard_support.obj
 0002:fffe8000       __guard_fids__guard_icall_checks_enforced 0000000180000000     MSVCRT:guard_support.obj
 0000:fffd9000       _volmd                     0000000180000000     MSVCRT:guard_support.obj
 0000:fffd9000       _volmd                     0000000180000000     MSVCRT:guard_support.obj
 0000:fffd9000       _volmd                     0000000180000000     MSVCRT:guard_support.obj
 0000:fffd9000       _volmd                     0000000180000000     MSVCRT:guard_support.obj
 0000:fffd9000       _volmd                     0000000180000000     MSVCRT:guard_support.obj
 0002:fffe8000       __guard_ehcont___scrt_is_nonwritable_in_current_image 0000000180000000     MSVCRT:utility.obj
 0000:fffd9000       _volmd                     0000000180000000     MSVCRT:utility.obj
 0000:fffd9000       _volmd                     0000000180000000     MSVCRT:utility.obj
 0000:fffd9000       _volmd                     0000000180000000     MSVCRT:utility.obj
 0002:fffe8000       __guard_fids___scrt_set_unhandled_exception_filter 0000000180000000     MSVCRT:utility_desktop.obj
 0000:fffd9000       _volmd                     0000000180000000     MSVCRT:utility_desktop.obj
 0000:00000000       .debug$S                   0000000180000000     vcruntime:VCRUNTIME140.dll
 0000:00000000       .debug$S                   0000000180000000     vcruntime:VCRUNTIME140.dll
 0000:00000000       .debug$S                   0000000180000000     vcruntime:VCRUNTIME140.dll
 0000:00000000       .debug$S                   0000000180000000     vcruntime:VCRUNTIME140.dll
 0000:00000000       .debug$S                   0000000180000000     vcruntime:VCRUNTIME140.dll
 0000:00000000       .debug$S                   0000000180000000     vcruntime:VCRUNTIME140.dll
 0000:00000000       .debug$S                   0000000180000000     ucrt:api-ms-win-crt-heap-l1-1-0.dll
 0000:00000000       .debug$S                   0000000180000000     ucrt:api-ms-win-crt-heap-l1-1-0.dll
 0000:00000000       .debug$S                   0000000180000000     ucrt:api-ms-win-crt-heap-l1-1-0.dll
 0000:00000000       .debug$S                   0000000180000000     ucrt:api-ms-win-crt-runtime-l1-1-0.dll
 0000:00000000       .debug$S                   0000000180000000     ucrt:api-ms-win-crt-runtime-l1-1-0.dll
 0000:00000000       .debug$S                   0000000180000000     ucrt:api-ms-win-crt-runtime-l1-1-0.dll
 0000:00000000       .debug$S                   0000000180000000     ucrt:api-ms-win-crt-runtime-l1-1-0.dll
 0000:00000000       .debug$S                   0000000180000000     ucrt:api-ms-win-crt-runtime-l1-1-0.dll
 0000:00000000       .debug$S                   0000000180000000     ucrt:api-ms-win-crt-runtime-l1-1-0.dll
 0000:00000000       .debug$S                   0000000180000000     ucrt:api-ms-win-crt-runtime-l1-1-0.dll
 0000:00000000       .debug$S                   0000000180000000     ucrt:api-ms-win-crt-runtime-l1-1-0.dll
 0000:00000000       .debug$S                   0000000180000000     ucrt:api-ms-win-crt-runtime-l1-1-0.dll
 0000:00000000       .debug$S                   0000000180000000     ucrt:api-ms-win-crt-runtime-l1-1-0.dll
 0000:00000000       .debug$S                   0000000180000000     ucrt:api-ms-win-crt-runtime-l1-1-0.dll
 0000:00000000       .debug$S                   0000000180000000     ucrt:api-ms-win-crt-runtime-l1-1-0.dll
 0000:00000000       .debug$S                   0000000180000000     ucrt:api-ms-win-crt-stdio-l1-1-0.dll
 0000:00000000       .debug$S                   0000000180000000     ucrt:api-ms-win-crt-string-l1-1-0.dll
 0000:00000000       .debug$S                   0000000180000000     ucrt:api-ms-win-crt-string-l1-1-0.dll
 0000:00000000       .debug$S                   0000000180000000     ucrt:api-ms-win-crt-time-l1-1-0.dll
 0000:00000000       .debug$S                   0000000180000000     ucrt:api-ms-win-crt-time-l1-1-0.dll
 0000:00000000       .debug$S                   0000000180000000     kernel32:KERNEL32.dll
 0000:00000000       .debug$S                   0000000180000000     kernel32:KERNEL32.dll
 0000:00000000       .debug$S                   0000000180000000     kernel32:KERNEL32.dll
 0000:00000000       .debug$S                   0000000180000000     kernel32:KERNEL32.dll
 0000:00000000       .debug$S                   0000000180000000     kernel32:KERNEL32.dll
 0000:00000000       .debug$S                   0000000180000000     kernel32:KERNEL32.dll
 0000:00000000       .debug$S                   0000000180000000     kernel32:KERNEL32.dll
 0000:00000000       .debug$S                   0000000180000000     kernel32:KERNEL32.dll
 0000:00000000       .debug$S                   0000000180000000     kernel32:KERNEL32.dll
 0000:00000000       .debug$S                   0000000180000000     kernel32:KERNEL32.dll
 0000:00000000       .debug$S                   0000000180000000     kernel32:KERNEL32.dll
 0000:00000000       .debug$S                   0000000180000000     kernel32:KERNEL32.dll
 0000:00000000       .debug$S                   0000000180000000     kernel32:KERNEL32.dll
 0000:00000000       .debug$S                   0000000180000000     kernel32:KERNEL32.dll
 0000:00000000       .debug$S                   0000000180000000     kernel32:KERNEL32.dll
 0000:00000000       .debug$S                   0000000180000000     kernel32:KERNEL32.dll
 0000:00000000       .debug$S                   0000000180000000     kernel32:KERNEL32.dll
 0000:00000000       .debug$S                   0000000180000000     libemlrt:libemlrt.dll
 0000:00000000       .debug$S                   0000000180000000     libemlrt:libemlrt.dll
 0000:00000000       .debug$S                   0000000180000000     libemlrt:libemlrt.dll
 0000:00000000       .debug$S                   0000000180000000     libemlrt:libemlrt.dll
 0000:00000000       .debug$S                   0000000180000000     libemlrt:libemlrt.dll
 0000:00000000       .debug$S                   0000000180000000     libmex:libmex.dll
 0000:00000000       .debug$S                   0000000180000000     libmex:libmex.dll
 0000:00000000       .debug$S                   0000000180000000     libmex:libmex.dll
 0000:00000000       .debug$S                   0000000180000000     libmex:libmex.dll
 0000:00000000       .debug$S                   0000000180000000     libmex:libmex.dll
 0000:00000000       .debug$S                   0000000180000000     libmwcgxert:libmwcgxert.dll
 0000:00000000       .debug$S                   0000000180000000     libmwcgxert:libmwcgxert.dll
 0000:00000000       .debug$S                   0000000180000000     libmwcgxert:libmwcgxert.dll
 0000:00000000       .debug$S                   0000000180000000     libmwcgxert:libmwcgxert.dll
 0000:00000000       .debug$S                   0000000180000000     libmwcgxert:libmwcgxert.dll
 0000:00000000       .debug$S                   0000000180000000     libmwcgxert:libmwcgxert.dll
 0000:00000000       .debug$S                   0000000180000000     libmwcgxert:libmwcgxert.dll
 0000:00000000       .debug$S                   0000000180000000     libmwcgxert:libmwcgxert.dll
 0000:00000000       .debug$S                   0000000180000000     libmwcgxert:libmwcgxert.dll
 0000:00000000       .debug$S                   0000000180000000     libmwmathutil:libmwmathutil.dll
 0000:00000000       .debug$S                   0000000180000000     libmwmathutil:libmwmathutil.dll
 0000:00000000       .debug$S                   0000000180000000     libmwmathutil:libmwmathutil.dll
 0000:00000000       .debug$S                   0000000180000000     libmwmathutil:libmwmathutil.dll
 0000:00000000       .debug$S                   0000000180000000     libmwmathutil:libmwmathutil.dll
 0000:00000000       .debug$S                   0000000180000000     libmwmathutil:libmwmathutil.dll
 0000:00000000       .debug$S                   0000000180000000     libmwmathutil:libmwmathutil.dll
 0000:00000000       .debug$S                   0000000180000000     libmwmathutil:libmwmathutil.dll
 0000:00000000       .debug$S                   0000000180000000     libmwmathutil:libmwmathutil.dll
 0000:00000000       .debug$S                   0000000180000000     libmwmathutil:libmwmathutil.dll
 0000:00000000       .debug$S                   0000000180000000     libmwmathutil:libmwmathutil.dll
 0000:00000000       .debug$S                   0000000180000000     libmx:libmx.dll
 0000:00000000       .debug$S                   0000000180000000     libmx:libmx.dll
 0000:00000000       .debug$S                   0000000180000000     libmx:libmx.dll
 0000:00000000       .debug$S                   0000000180000000     libmx:libmx.dll
 0000:00000000       .debug$S                   0000000180000000     libmx:libmx.dll
 0000:00000000       .debug$S                   0000000180000000     libmx:libmx.dll
 0000:00000000       .debug$S                   0000000180000000     libmx:libmx.dll
 0000:00000000       .debug$S                   0000000180000000     libmx:libmx.dll
 0000:00000000       .debug$S                   0000000180000000     libmx:libmx.dll
 0000:00000000       .debug$S                   0000000180000000     libmx:libmx.dll
 0000:00000000       .debug$S                   0000000180000000     libmx:libmx.dll
 0000:00000000       .debug$S                   0000000180000000     libmx:libmx.dll
 0000:00000000       .debug$S                   0000000180000000     libmx:libmx.dll
 0000:00000000       .debug$S                   0000000180000000     libmx:libmx.dll
 0000:00000000       .debug$S                   0000000180000000     libmx:libmx.dll
 0000:00000000       .debug$S                   0000000180000000     libmx:libmx.dll
 0000:00000000       .debug$S                   0000000180000000     libmx:libmx.dll
 0000:00000000       .debug$S                   0000000180000000     libmx:libmx.dll
 0000:00000000       .debug$S                   0000000180000000     libmx:libmx.dll
 0000:00000000       .debug$S                   0000000180000000     libmx:libmx.dll
 0000:fffd9010       _volmd                     0000000180000010     Quadrature_Phase_Shift_Keying_cgxe_registry.obj
 0000:fffd9010       _volmd                     0000000180000010     m_Jf2lRQWLrP2B1g4UrAzlsF.obj
 0000:fffd9010       _volmd                     0000000180000010     m_UGsKOob1SZ1GnhcskvCSLB.obj
 0000:fffd9020       _volmd                     0000000180000020     Quadrature_Phase_Shift_Keying_cgxe_registry.obj
 0000:fffd9020       _volmd                     0000000180000020     m_Jf2lRQWLrP2B1g4UrAzlsF.obj
 0000:fffd9020       _volmd                     0000000180000020     m_UGsKOob1SZ1GnhcskvCSLB.obj
 0000:fffd9030       _volmd                     0000000180000030     Quadrature_Phase_Shift_Keying_cgxe_registry.obj
 0000:fffd9030       _volmd                     0000000180000030     m_Jf2lRQWLrP2B1g4UrAzlsF.obj
 0000:fffd9030       _volmd                     0000000180000030     m_UGsKOob1SZ1GnhcskvCSLB.obj
 0000:fffd9040       _volmd                     0000000180000040     Quadrature_Phase_Shift_Keying_cgxe_registry.obj
 0000:fffd9040       _volmd                     0000000180000040     m_Jf2lRQWLrP2B1g4UrAzlsF.obj
 0000:fffd9040       _volmd                     0000000180000040     m_UGsKOob1SZ1GnhcskvCSLB.obj
 0000:fffd9050       _volmd                     0000000180000050     Quadrature_Phase_Shift_Keying_cgxe_registry.obj
 0000:fffd9050       _volmd                     0000000180000050     m_Jf2lRQWLrP2B1g4UrAzlsF.obj
 0000:fffd9050       _volmd                     0000000180000050     m_UGsKOob1SZ1GnhcskvCSLB.obj
 0000:fffd9060       _volmd                     0000000180000060     Quadrature_Phase_Shift_Keying_cgxe_registry.obj
 0000:fffd9060       _volmd                     0000000180000060     m_Jf2lRQWLrP2B1g4UrAzlsF.obj
 0000:fffd9060       _volmd                     0000000180000060     m_UGsKOob1SZ1GnhcskvCSLB.obj
 0000:fffd9070       _volmd                     0000000180000070     Quadrature_Phase_Shift_Keying_cgxe_registry.obj
 0000:fffd9070       _volmd                     0000000180000070     m_Jf2lRQWLrP2B1g4UrAzlsF.obj
 0000:fffd9070       _volmd                     0000000180000070     m_UGsKOob1SZ1GnhcskvCSLB.obj
 0000:fffd9080       _volmd                     0000000180000080     Quadrature_Phase_Shift_Keying_cgxe_registry.obj
 0000:fffd9080       _volmd                     0000000180000080     m_Jf2lRQWLrP2B1g4UrAzlsF.obj
 0000:fffd9080       _volmd                     0000000180000080     m_UGsKOob1SZ1GnhcskvCSLB.obj
 0000:fffd9090       _volmd                     0000000180000090     Quadrature_Phase_Shift_Keying_cgxe_registry.obj
 0000:fffd9090       _volmd                     0000000180000090     m_UGsKOob1SZ1GnhcskvCSLB.obj
 0000:fffd90a0       _volmd                     00000001800000a0     Quadrature_Phase_Shift_Keying_cgxe_registry.obj
 0000:fffd90a0       _volmd                     00000001800000a0     m_UGsKOob1SZ1GnhcskvCSLB.obj
 0000:fffd90b0       _volmd                     00000001800000b0     Quadrature_Phase_Shift_Keying_cgxe_registry.obj
 0000:fffd90c0       _volmd                     00000001800000c0     Quadrature_Phase_Shift_Keying_cgxe_registry.obj
 0000:fffd90d0       _volmd                     00000001800000d0     Quadrature_Phase_Shift_Keying_cgxe_registry.obj
 0000:fffd90e0       _volmd                     00000001800000e0     Quadrature_Phase_Shift_Keying_cgxe_registry.obj
 0001:00000140       localtime                  0000000180001140 f   m_Jf2lRQWLrP2B1g4UrAzlsF.obj
 0001:00000160       time                       0000000180001160 f   m_Jf2lRQWLrP2B1g4UrAzlsF.obj
 0001:000001d0       cgxe_mdl_start             00000001800011d0 f   m_Jf2lRQWLrP2B1g4UrAzlsF.obj
 0001:000002c0       cgxe_mdl_initialize        00000001800012c0 f   m_Jf2lRQWLrP2B1g4UrAzlsF.obj
 0001:000003a0       cgxe_mdl_outputs           00000001800013a0 f   m_Jf2lRQWLrP2B1g4UrAzlsF.obj
 0001:00000490       cgxe_mdl_update            0000000180001490 f   m_Jf2lRQWLrP2B1g4UrAzlsF.obj
 0001:000004a0       cgxe_mdl_derivative        00000001800014a0 f   m_Jf2lRQWLrP2B1g4UrAzlsF.obj
 0001:000004b0       cgxe_mdl_enable            00000001800014b0 f   m_Jf2lRQWLrP2B1g4UrAzlsF.obj
 0001:000004c0       cgxe_mdl_disable           00000001800014c0 f   m_Jf2lRQWLrP2B1g4UrAzlsF.obj
 0001:000004d0       cgxe_mdl_terminate         00000001800014d0 f   m_Jf2lRQWLrP2B1g4UrAzlsF.obj
 0001:00000520       mw__internal__system__init__fcn 0000000180001520 f   m_Jf2lRQWLrP2B1g4UrAzlsF.obj
 0001:00000650       mw__internal__call__setup  0000000180001650 f   m_Jf2lRQWLrP2B1g4UrAzlsF.obj
 0001:00000880       AWGNChannelBase_set_SNR    0000000180001880 f   m_Jf2lRQWLrP2B1g4UrAzlsF.obj
 0001:00000bb0       AWGNChannelBase_set_SignalPower 0000000180001bb0 f   m_Jf2lRQWLrP2B1g4UrAzlsF.obj
 0001:00001400       SystemCore_setup           0000000180002400 f   m_Jf2lRQWLrP2B1g4UrAzlsF.obj
 0001:00002050       now                        0000000180003050 f   m_Jf2lRQWLrP2B1g4UrAzlsF.obj
 0001:00002480       b_mod                      0000000180003480 f   m_Jf2lRQWLrP2B1g4UrAzlsF.obj
 0001:00002540       mt19937ar_reset            0000000180003540 f   m_Jf2lRQWLrP2B1g4UrAzlsF.obj
 0001:00002610       AWGNChannelBase_getStandardDeviation 0000000180003610 f   m_Jf2lRQWLrP2B1g4UrAzlsF.obj
 0001:00002950       SystemCore_checkTunablePropChange 0000000180003950 f   m_Jf2lRQWLrP2B1g4UrAzlsF.obj
 0001:00002b50       mw__internal__call__reset  0000000180003b50 f   m_Jf2lRQWLrP2B1g4UrAzlsF.obj
 0001:00003230       mw__internal__call__step   0000000180004230 f   m_Jf2lRQWLrP2B1g4UrAzlsF.obj
 0001:00003f00       randn                      0000000180004f00 f   m_Jf2lRQWLrP2B1g4UrAzlsF.obj
 0001:00004290       genrandu                   0000000180005290 f   m_Jf2lRQWLrP2B1g4UrAzlsF.obj
 0001:00004340       message                    0000000180005340 f   m_Jf2lRQWLrP2B1g4UrAzlsF.obj
 0001:000043e0       getString                  00000001800053e0 f   m_Jf2lRQWLrP2B1g4UrAzlsF.obj
 0001:00004450       error                      0000000180005450 f   m_Jf2lRQWLrP2B1g4UrAzlsF.obj
 0001:000044e0       b_message                  00000001800054e0 f   m_Jf2lRQWLrP2B1g4UrAzlsF.obj
 0001:00004550       eml_rand_shr3cong          0000000180005550 f   m_Jf2lRQWLrP2B1g4UrAzlsF.obj
 0001:00004aa0       eml_rand_mt19937ar         0000000180005aa0 f   m_Jf2lRQWLrP2B1g4UrAzlsF.obj
 0001:00004d70       genrand_uint32_vector      0000000180005d70 f   m_Jf2lRQWLrP2B1g4UrAzlsF.obj
 0001:00005020       b_genrandu                 0000000180006020 f   m_Jf2lRQWLrP2B1g4UrAzlsF.obj
 0001:00005360       init_simulink_io_address   0000000180006360 f   m_Jf2lRQWLrP2B1g4UrAzlsF.obj
 0001:000053d0       mdlOutputs_Jf2lRQWLrP2B1g4UrAzlsF 00000001800063d0 f   m_Jf2lRQWLrP2B1g4UrAzlsF.obj
 0001:00005410       mdlInitialize_Jf2lRQWLrP2B1g4UrAzlsF 0000000180006410 f   m_Jf2lRQWLrP2B1g4UrAzlsF.obj
 0001:00005440       mdlUpdate_Jf2lRQWLrP2B1g4UrAzlsF 0000000180006440 f   m_Jf2lRQWLrP2B1g4UrAzlsF.obj
 0001:00005480       mdlDerivatives_Jf2lRQWLrP2B1g4UrAzlsF 0000000180006480 f   m_Jf2lRQWLrP2B1g4UrAzlsF.obj
 0001:000054b0       mdlTerminate_Jf2lRQWLrP2B1g4UrAzlsF 00000001800064b0 f   m_Jf2lRQWLrP2B1g4UrAzlsF.obj
 0001:000054f0       mdlEnable_Jf2lRQWLrP2B1g4UrAzlsF 00000001800064f0 f   m_Jf2lRQWLrP2B1g4UrAzlsF.obj
 0001:00005520       mdlDisable_Jf2lRQWLrP2B1g4UrAzlsF 0000000180006520 f   m_Jf2lRQWLrP2B1g4UrAzlsF.obj
 0001:00005550       mdlStart_Jf2lRQWLrP2B1g4UrAzlsF 0000000180006550 f   m_Jf2lRQWLrP2B1g4UrAzlsF.obj
 0001:00005660       mdlProcessParameters_Jf2lRQWLrP2B1g4UrAzlsF 0000000180006660 f   m_Jf2lRQWLrP2B1g4UrAzlsF.obj
 0001:000059b0       localtime                  00000001800069b0 f   m_UGsKOob1SZ1GnhcskvCSLB.obj
 0001:000059d0       time                       00000001800069d0 f   m_UGsKOob1SZ1GnhcskvCSLB.obj
 0001:00005a40       cgxe_mdl_start             0000000180006a40 f   m_UGsKOob1SZ1GnhcskvCSLB.obj
 0001:00005b30       cgxe_mdl_initialize        0000000180006b30 f   m_UGsKOob1SZ1GnhcskvCSLB.obj
 0001:00005c10       cgxe_mdl_outputs           0000000180006c10 f   m_UGsKOob1SZ1GnhcskvCSLB.obj
 0001:00005cf0       cgxe_mdl_update            0000000180006cf0 f   m_UGsKOob1SZ1GnhcskvCSLB.obj
 0001:00005d00       cgxe_mdl_derivative        0000000180006d00 f   m_UGsKOob1SZ1GnhcskvCSLB.obj
 0001:00005d10       cgxe_mdl_enable            0000000180006d10 f   m_UGsKOob1SZ1GnhcskvCSLB.obj
 0001:00005d20       cgxe_mdl_disable           0000000180006d20 f   m_UGsKOob1SZ1GnhcskvCSLB.obj
 0001:00005d30       cgxe_mdl_terminate         0000000180006d30 f   m_UGsKOob1SZ1GnhcskvCSLB.obj
 0001:00005d80       mw__internal__system__init__fcn 0000000180006d80 f   m_UGsKOob1SZ1GnhcskvCSLB.obj
 0001:00005eb0       mw__internal__call__setup  0000000180006eb0 f   m_UGsKOob1SZ1GnhcskvCSLB.obj
 0001:000060e0       AWGNChannelBase_set_SNR    00000001800070e0 f   m_UGsKOob1SZ1GnhcskvCSLB.obj
 0001:00006410       AWGNChannelBase_set_SignalPower 0000000180007410 f   m_UGsKOob1SZ1GnhcskvCSLB.obj
 0001:00006c60       SystemCore_setup           0000000180007c60 f   m_UGsKOob1SZ1GnhcskvCSLB.obj
 0001:000078b0       now                        00000001800088b0 f   m_UGsKOob1SZ1GnhcskvCSLB.obj
 0001:00007ce0       b_mod                      0000000180008ce0 f   m_UGsKOob1SZ1GnhcskvCSLB.obj
 0001:00007da0       mt19937ar_reset            0000000180008da0 f   m_UGsKOob1SZ1GnhcskvCSLB.obj
 0001:00007e70       AWGNChannelBase_getStandardDeviation 0000000180008e70 f   m_UGsKOob1SZ1GnhcskvCSLB.obj
 0001:000081b0       SystemCore_checkTunablePropChange 00000001800091b0 f   m_UGsKOob1SZ1GnhcskvCSLB.obj
 0001:000083b0       mw__internal__call__reset  00000001800093b0 f   m_UGsKOob1SZ1GnhcskvCSLB.obj
 0001:00008a90       mw__internal__call__step   0000000180009a90 f   m_UGsKOob1SZ1GnhcskvCSLB.obj
 0001:00009830       complexLike                000000018000a830 f   m_UGsKOob1SZ1GnhcskvCSLB.obj
 0001:0000a450       genrandu                   000000018000b450 f   m_UGsKOob1SZ1GnhcskvCSLB.obj
 0001:0000a500       eml_rand_mt19937ar_stateful 000000018000b500 f   m_UGsKOob1SZ1GnhcskvCSLB.obj
 0001:0000a730       message                    000000018000b730 f   m_UGsKOob1SZ1GnhcskvCSLB.obj
 0001:0000a7d0       getString                  000000018000b7d0 f   m_UGsKOob1SZ1GnhcskvCSLB.obj
 0001:0000a840       error                      000000018000b840 f   m_UGsKOob1SZ1GnhcskvCSLB.obj
 0001:0000a8d0       b_message                  000000018000b8d0 f   m_UGsKOob1SZ1GnhcskvCSLB.obj
 0001:0000a940       genrandn                   000000018000b940 f   m_UGsKOob1SZ1GnhcskvCSLB.obj
 0001:0000ae50       eml_rand_mt19937ar         000000018000be50 f   m_UGsKOob1SZ1GnhcskvCSLB.obj
 0001:0000b120       genrand_uint32_vector      000000018000c120 f   m_UGsKOob1SZ1GnhcskvCSLB.obj
 0001:0000b3d0       b_genrandu                 000000018000c3d0 f   m_UGsKOob1SZ1GnhcskvCSLB.obj
 0001:0000b710       init_simulink_io_address   000000018000c710 f   m_UGsKOob1SZ1GnhcskvCSLB.obj
 0001:0000b780       mdlOutputs_UGsKOob1SZ1GnhcskvCSLB 000000018000c780 f   m_UGsKOob1SZ1GnhcskvCSLB.obj
 0001:0000b7c0       mdlInitialize_UGsKOob1SZ1GnhcskvCSLB 000000018000c7c0 f   m_UGsKOob1SZ1GnhcskvCSLB.obj
 0001:0000b7f0       mdlUpdate_UGsKOob1SZ1GnhcskvCSLB 000000018000c7f0 f   m_UGsKOob1SZ1GnhcskvCSLB.obj
 0001:0000b830       mdlDerivatives_UGsKOob1SZ1GnhcskvCSLB 000000018000c830 f   m_UGsKOob1SZ1GnhcskvCSLB.obj
 0001:0000b860       mdlTerminate_UGsKOob1SZ1GnhcskvCSLB 000000018000c860 f   m_UGsKOob1SZ1GnhcskvCSLB.obj
 0001:0000b8a0       mdlEnable_UGsKOob1SZ1GnhcskvCSLB 000000018000c8a0 f   m_UGsKOob1SZ1GnhcskvCSLB.obj
 0001:0000b8d0       mdlDisable_UGsKOob1SZ1GnhcskvCSLB 000000018000c8d0 f   m_UGsKOob1SZ1GnhcskvCSLB.obj
 0001:0000b900       mdlStart_UGsKOob1SZ1GnhcskvCSLB 000000018000c900 f   m_UGsKOob1SZ1GnhcskvCSLB.obj
 0001:0000ba10       mdlProcessParameters_UGsKOob1SZ1GnhcskvCSLB 000000018000ca10 f   m_UGsKOob1SZ1GnhcskvCSLB.obj
 0001:0000daec       $LN147                     000000018000eaec     Quadrature_Phase_Shift_Keying_cgxe_registry.obj
 0001:0000e954       $LN22                      000000018000f954     Quadrature_Phase_Shift_Keying_cgxe_registry.obj
 0001:0000f054       $LN26                      0000000180010054     Quadrature_Phase_Shift_Keying_cgxe_registry.obj
 0001:0000f734       $LN24                      0000000180010734     Quadrature_Phase_Shift_Keying_cgxe_registry.obj
 0001:0001046c       $LN30                      000000018001146c     Quadrature_Phase_Shift_Keying_cgxe_registry.obj
 0001:00012e50       mdlStart                   0000000180013e50 f   Quadrature_Phase_Shift_Keying_cgxe_registry.obj
 0001:00012e90       mdlInitializeConditions    0000000180013e90 f   Quadrature_Phase_Shift_Keying_cgxe_registry.obj
 0001:00012eb0       mdlUpdate                  0000000180013eb0 f   Quadrature_Phase_Shift_Keying_cgxe_registry.obj
 0001:00012ee0       mdlOutputs                 0000000180013ee0 f   Quadrature_Phase_Shift_Keying_cgxe_registry.obj
 0001:00012f10       mdlTerminate               0000000180013f10 f   Quadrature_Phase_Shift_Keying_cgxe_registry.obj
 0001:00012f30       mdlInitializeSizes         0000000180013f30 f   Quadrature_Phase_Shift_Keying_cgxe_registry.obj
 0001:00012f40       mdlInitializeSampleTimes   0000000180013f40 f   Quadrature_Phase_Shift_Keying_cgxe_registry.obj
 0001:00012f50       cgxe_get_supported_modules 0000000180013f50 f   Quadrature_Phase_Shift_Keying_cgxe_registry.obj
 0001:000130b0       cgxe_process_get_checksums 00000001800140b0 f   Quadrature_Phase_Shift_Keying_cgxe_registry.obj
 0001:00013440       cgxe_mex_unlock_call       0000000180014440 f   Quadrature_Phase_Shift_Keying_cgxe_registry.obj
 0001:00013480       cgxe_unpack_simstruct      0000000180014480 f   Quadrature_Phase_Shift_Keying_cgxe_registry.obj
 0001:00013520       cgxe_get_sim_state         0000000180014520 f   Quadrature_Phase_Shift_Keying_cgxe_registry.obj
 0001:00013590       cgxe_set_sim_state         0000000180014590 f   Quadrature_Phase_Shift_Keying_cgxe_registry.obj
 0001:00013610       cgxe_get_BuildInfoUpdate   0000000180014610 f   Quadrature_Phase_Shift_Keying_cgxe_registry.obj
 0001:00013710       cgxe_get_fallback_info     0000000180014710 f   Quadrature_Phase_Shift_Keying_cgxe_registry.obj
 0001:00013810       ProcessMexSfunctionCmdLineCall 0000000180014810 f   Quadrature_Phase_Shift_Keying_cgxe_registry.obj
 0001:00013a40       mdlZeroCrossings           0000000180014a40 f   Quadrature_Phase_Shift_Keying_cgxe_registry.obj
 0001:00013a90       mdlGetTimeOfNextVarHit     0000000180014a90 f   Quadrature_Phase_Shift_Keying_cgxe_registry.obj
 0001:00013ae0       _RegNumInputPortsCB        0000000180014ae0 f   Quadrature_Phase_Shift_Keying_cgxe_registry.obj
 0001:00013b60       _RegNumOutputPortsCB       0000000180014b60 f   Quadrature_Phase_Shift_Keying_cgxe_registry.obj
 0001:00013be0       _CreateSimStruct           0000000180014be0 f   Quadrature_Phase_Shift_Keying_cgxe_registry.obj
 0001:00013e10       _ProcessMexSfunctionCmdLineCall 0000000180014e10 f   Quadrature_Phase_Shift_Keying_cgxe_registry.obj
 0001:000147a0       ReportIndexOutOfBoundsError 00000001800157a0 f   Quadrature_Phase_Shift_Keying_cgxe_registry.obj
 0001:00014e94       capture_current_context    0000000180015e94 f   MSVCRT:gs_report.obj
 0001:00014f04       capture_previous_context   0000000180015f04 f   MSVCRT:gs_report.obj
 0001:00015000       $$000000                   0000000180016000     MSVCRT:amdsecgs.obj
 0001:00015030       ?dllmain_crt_dispatch@@YAHQEAUHINSTANCE__@@KQEAX@Z 0000000180016030 f   MSVCRT:dll_dllmain.obj
 0001:00015080       ?dllmain_crt_process_attach@@YAHQEAUHINSTANCE__@@QEAX@Z 0000000180016080 f   MSVCRT:dll_dllmain.obj
 0001:00015198       ?dllmain_crt_process_detach@@YAH_N@Z 0000000180016198 f   MSVCRT:dll_dllmain.obj
 0001:0001521c       ?dllmain_dispatch@@YAHQEAUHINSTANCE__@@KQEAX@Z 000000018001621c f   MSVCRT:dll_dllmain.obj
 0001:00015350       ?dllmain_raw@@YAHQEAUHINSTANCE__@@KQEAX@Z 0000000180016350 f   MSVCRT:dll_dllmain.obj
 0001:000153b4       __get_entropy              00000001800163b4 f   MSVCRT:gs_support.obj
 0001:00015544       ?find_pe_section@@YAPEAU_IMAGE_SECTION_HEADER@@QEAE_K@Z 0000000180016544 f   MSVCRT:utility.obj
 0001:00015598       ?is_potentially_valid_image_base@@YA_NQEAX@Z 0000000180016598 f   MSVCRT:utility.obj
 0001:00015ce4       __castguard_compat_check   0000000180016ce4 f   MSVCRT:guard_support.obj
 0001:00015dd0       __castguard_slow_path_compat_check 0000000180016dd0 f   MSVCRT:guard_support.obj
 0001:000160e0       $$000000                   00000001800170e0     MSVCRT:guard_dispatch.obj
 0001:00016100       $$000000                   0000000180017100     MSVCRT:guard_xfg_dispatch.obj
 0001:00016116       ?fin$0@?0??dllmain_crt_process_attach@@YAHQEAUHINSTANCE__@@QEAX@Z@4HA 0000000180017116 f   MSVCRT:dll_dllmain.obj
 0001:0001612d       ?fin$0@?0??dllmain_crt_process_detach@@YAH_N@Z@4HA 000000018001712d f   MSVCRT:dll_dllmain.obj
 0001:00016146       ?fin$1@?0??dllmain_crt_process_detach@@YAH_N@Z@4HA 0000000180017146 f   MSVCRT:dll_dllmain.obj
 0001:0001615a       ?filt$0@?0??dllmain_dispatch@@YAHQEAUHINSTANCE__@@KQEAX@Z@4HA 000000018001715a f   MSVCRT:dll_dllmain.obj
 0001:00016190       __scrt_is_nonwritable_in_current_image$filt$0 0000000180017190 f   MSVCRT:utility.obj
 0002:000003b0       ?iv@?1??AWGNChannelBase_set_SNR@@9@9 00000001800183b0     m_Jf2lRQWLrP2B1g4UrAzlsF.obj
 0002:000003b8       ?iv1@?1??AWGNChannelBase_set_SNR@@9@9 00000001800183b8     m_Jf2lRQWLrP2B1g4UrAzlsF.obj
 0002:000003c0       ?iv2@?1??AWGNChannelBase_set_SNR@@9@9 00000001800183c0     m_Jf2lRQWLrP2B1g4UrAzlsF.obj
 0002:000003c8       ?iv@?1??AWGNChannelBase_set_SignalPower@@9@9 00000001800183c8     m_Jf2lRQWLrP2B1g4UrAzlsF.obj
 0002:000003d0       ?iv1@?1??AWGNChannelBase_set_SignalPower@@9@9 00000001800183d0     m_Jf2lRQWLrP2B1g4UrAzlsF.obj
 0002:000003d8       ?iv2@?1??AWGNChannelBase_set_SignalPower@@9@9 00000001800183d8     m_Jf2lRQWLrP2B1g4UrAzlsF.obj
 0002:000003e0       ?iv3@?1??AWGNChannelBase_set_SignalPower@@9@9 00000001800183e0     m_Jf2lRQWLrP2B1g4UrAzlsF.obj
 0002:000003e8       ?iv4@?1??AWGNChannelBase_set_SignalPower@@9@9 00000001800183e8     m_Jf2lRQWLrP2B1g4UrAzlsF.obj
 0002:000003f0       ?iv5@?1??AWGNChannelBase_set_SignalPower@@9@9 00000001800183f0     m_Jf2lRQWLrP2B1g4UrAzlsF.obj
 0002:000003f8       ?iv6@?1??AWGNChannelBase_set_SignalPower@@9@9 00000001800183f8     m_Jf2lRQWLrP2B1g4UrAzlsF.obj
 0002:00000400       ?iv7@?1??AWGNChannelBase_set_SignalPower@@9@9 0000000180018400     m_Jf2lRQWLrP2B1g4UrAzlsF.obj
 0002:00000408       ?iv8@?1??AWGNChannelBase_set_SignalPower@@9@9 0000000180018408     m_Jf2lRQWLrP2B1g4UrAzlsF.obj
 0002:00000410       ?iv@?1??SystemCore_setup@@9@9 0000000180018410     m_Jf2lRQWLrP2B1g4UrAzlsF.obj
 0002:00000418       ?iv1@?1??SystemCore_setup@@9@9 0000000180018418     m_Jf2lRQWLrP2B1g4UrAzlsF.obj
 0002:00000420       ?iv2@?1??SystemCore_setup@@9@9 0000000180018420     m_Jf2lRQWLrP2B1g4UrAzlsF.obj
 0002:00000428       ?iv3@?1??SystemCore_setup@@9@9 0000000180018428     m_Jf2lRQWLrP2B1g4UrAzlsF.obj
 0002:00000430       ?iv4@?1??SystemCore_setup@@9@9 0000000180018430     m_Jf2lRQWLrP2B1g4UrAzlsF.obj
 0002:00000438       ?iv5@?1??SystemCore_setup@@9@9 0000000180018438     m_Jf2lRQWLrP2B1g4UrAzlsF.obj
 0002:00000440       ?iv6@?1??SystemCore_setup@@9@9 0000000180018440     m_Jf2lRQWLrP2B1g4UrAzlsF.obj
 0002:00000448       ?iv@?1??AWGNChannelBase_getStandardDeviation@@9@9 0000000180018448     m_Jf2lRQWLrP2B1g4UrAzlsF.obj
 0002:00000450       ?iv1@?1??AWGNChannelBase_getStandardDeviation@@9@9 0000000180018450     m_Jf2lRQWLrP2B1g4UrAzlsF.obj
 0002:00000458       ?iv2@?1??AWGNChannelBase_getStandardDeviation@@9@9 0000000180018458     m_Jf2lRQWLrP2B1g4UrAzlsF.obj
 0002:00000460       ?iv@?1??SystemCore_checkTunablePropChange@@9@9 0000000180018460     m_Jf2lRQWLrP2B1g4UrAzlsF.obj
 0002:00000468       ?iv1@?1??SystemCore_checkTunablePropChange@@9@9 0000000180018468     m_Jf2lRQWLrP2B1g4UrAzlsF.obj
 0002:00000470       ?iv@?1??mw__internal__call__reset@@9@9 0000000180018470     m_Jf2lRQWLrP2B1g4UrAzlsF.obj
 0002:00000478       ?iv1@?1??mw__internal__call__reset@@9@9 0000000180018478     m_Jf2lRQWLrP2B1g4UrAzlsF.obj
 0002:00000480       ?iv2@?1??mw__internal__call__reset@@9@9 0000000180018480     m_Jf2lRQWLrP2B1g4UrAzlsF.obj
 0002:00000488       ?iv3@?1??mw__internal__call__reset@@9@9 0000000180018488     m_Jf2lRQWLrP2B1g4UrAzlsF.obj
 0002:00000490       ?iv4@?1??mw__internal__call__reset@@9@9 0000000180018490     m_Jf2lRQWLrP2B1g4UrAzlsF.obj
 0002:00000498       ?iv@?1??mw__internal__call__step@@9@9 0000000180018498     m_Jf2lRQWLrP2B1g4UrAzlsF.obj
 0002:000004a0       ?iv1@?1??mw__internal__call__step@@9@9 00000001800184a0     m_Jf2lRQWLrP2B1g4UrAzlsF.obj
 0002:000004a8       ?iv2@?1??mw__internal__call__step@@9@9 00000001800184a8     m_Jf2lRQWLrP2B1g4UrAzlsF.obj
 0002:000004b0       ?iv3@?1??mw__internal__call__step@@9@9 00000001800184b0     m_Jf2lRQWLrP2B1g4UrAzlsF.obj
 0002:000004b8       ?iv4@?1??mw__internal__call__step@@9@9 00000001800184b8     m_Jf2lRQWLrP2B1g4UrAzlsF.obj
 0002:000004c0       ?iv5@?1??mw__internal__call__step@@9@9 00000001800184c0     m_Jf2lRQWLrP2B1g4UrAzlsF.obj
 0002:000004c8       ?iv6@?1??mw__internal__call__step@@9@9 00000001800184c8     m_Jf2lRQWLrP2B1g4UrAzlsF.obj
 0002:000004d0       ?iv@?1??b_genrandu@@9@9    00000001800184d0     m_Jf2lRQWLrP2B1g4UrAzlsF.obj
 0002:000004d8       ?iv1@?1??b_genrandu@@9@9   00000001800184d8     m_Jf2lRQWLrP2B1g4UrAzlsF.obj
 0002:00000600       ?iv@?1??AWGNChannelBase_set_SNR@@9@9 0000000180018600     m_UGsKOob1SZ1GnhcskvCSLB.obj
 0002:00000608       ?iv1@?1??AWGNChannelBase_set_SNR@@9@9 0000000180018608     m_UGsKOob1SZ1GnhcskvCSLB.obj
 0002:00000610       ?iv2@?1??AWGNChannelBase_set_SNR@@9@9 0000000180018610     m_UGsKOob1SZ1GnhcskvCSLB.obj
 0002:00000618       ?iv@?1??AWGNChannelBase_set_SignalPower@@9@9 0000000180018618     m_UGsKOob1SZ1GnhcskvCSLB.obj
 0002:00000620       ?iv1@?1??AWGNChannelBase_set_SignalPower@@9@9 0000000180018620     m_UGsKOob1SZ1GnhcskvCSLB.obj
 0002:00000628       ?iv2@?1??AWGNChannelBase_set_SignalPower@@9@9 0000000180018628     m_UGsKOob1SZ1GnhcskvCSLB.obj
 0002:00000630       ?iv3@?1??AWGNChannelBase_set_SignalPower@@9@9 0000000180018630     m_UGsKOob1SZ1GnhcskvCSLB.obj
 0002:00000638       ?iv4@?1??AWGNChannelBase_set_SignalPower@@9@9 0000000180018638     m_UGsKOob1SZ1GnhcskvCSLB.obj
 0002:00000640       ?iv5@?1??AWGNChannelBase_set_SignalPower@@9@9 0000000180018640     m_UGsKOob1SZ1GnhcskvCSLB.obj
 0002:00000648       ?iv6@?1??AWGNChannelBase_set_SignalPower@@9@9 0000000180018648     m_UGsKOob1SZ1GnhcskvCSLB.obj
 0002:00000650       ?iv7@?1??AWGNChannelBase_set_SignalPower@@9@9 0000000180018650     m_UGsKOob1SZ1GnhcskvCSLB.obj
 0002:00000658       ?iv8@?1??AWGNChannelBase_set_SignalPower@@9@9 0000000180018658     m_UGsKOob1SZ1GnhcskvCSLB.obj
 0002:00000660       ?iv@?1??SystemCore_setup@@9@9 0000000180018660     m_UGsKOob1SZ1GnhcskvCSLB.obj
 0002:00000668       ?iv2@?1??SystemCore_setup@@9@9 0000000180018668     m_UGsKOob1SZ1GnhcskvCSLB.obj
 0002:00000670       ?iv3@?1??SystemCore_setup@@9@9 0000000180018670     m_UGsKOob1SZ1GnhcskvCSLB.obj
 0002:00000678       ?iv4@?1??SystemCore_setup@@9@9 0000000180018678     m_UGsKOob1SZ1GnhcskvCSLB.obj
 0002:00000680       ?iv5@?1??SystemCore_setup@@9@9 0000000180018680     m_UGsKOob1SZ1GnhcskvCSLB.obj
 0002:00000688       ?iv6@?1??SystemCore_setup@@9@9 0000000180018688     m_UGsKOob1SZ1GnhcskvCSLB.obj
 0002:00000690       ?iv7@?1??SystemCore_setup@@9@9 0000000180018690     m_UGsKOob1SZ1GnhcskvCSLB.obj
 0002:00000698       ?iv@?1??AWGNChannelBase_getStandardDeviation@@9@9 0000000180018698     m_UGsKOob1SZ1GnhcskvCSLB.obj
 0002:000006a0       ?iv1@?1??AWGNChannelBase_getStandardDeviation@@9@9 00000001800186a0     m_UGsKOob1SZ1GnhcskvCSLB.obj
 0002:000006a8       ?iv2@?1??AWGNChannelBase_getStandardDeviation@@9@9 00000001800186a8     m_UGsKOob1SZ1GnhcskvCSLB.obj
 0002:000006b0       ?iv@?1??SystemCore_checkTunablePropChange@@9@9 00000001800186b0     m_UGsKOob1SZ1GnhcskvCSLB.obj
 0002:000006b8       ?iv1@?1??SystemCore_checkTunablePropChange@@9@9 00000001800186b8     m_UGsKOob1SZ1GnhcskvCSLB.obj
 0002:000006c0       ?iv@?1??mw__internal__call__reset@@9@9 00000001800186c0     m_UGsKOob1SZ1GnhcskvCSLB.obj
 0002:000006c8       ?iv1@?1??mw__internal__call__reset@@9@9 00000001800186c8     m_UGsKOob1SZ1GnhcskvCSLB.obj
 0002:000006d0       ?iv2@?1??mw__internal__call__reset@@9@9 00000001800186d0     m_UGsKOob1SZ1GnhcskvCSLB.obj
 0002:000006d8       ?iv3@?1??mw__internal__call__reset@@9@9 00000001800186d8     m_UGsKOob1SZ1GnhcskvCSLB.obj
 0002:000006e0       ?iv4@?1??mw__internal__call__reset@@9@9 00000001800186e0     m_UGsKOob1SZ1GnhcskvCSLB.obj
 0002:000006e8       ?iv@?1??mw__internal__call__step@@9@9 00000001800186e8     m_UGsKOob1SZ1GnhcskvCSLB.obj
 0002:000006f0       ?iv1@?1??mw__internal__call__step@@9@9 00000001800186f0     m_UGsKOob1SZ1GnhcskvCSLB.obj
 0002:000006f8       ?iv2@?1??mw__internal__call__step@@9@9 00000001800186f8     m_UGsKOob1SZ1GnhcskvCSLB.obj
 0002:00000700       ?iv3@?1??mw__internal__call__step@@9@9 0000000180018700     m_UGsKOob1SZ1GnhcskvCSLB.obj
 0002:00000708       ?iv4@?1??mw__internal__call__step@@9@9 0000000180018708     m_UGsKOob1SZ1GnhcskvCSLB.obj
 0002:00000710       ?iv5@?1??mw__internal__call__step@@9@9 0000000180018710     m_UGsKOob1SZ1GnhcskvCSLB.obj
 0002:00000718       ?iv6@?1??mw__internal__call__step@@9@9 0000000180018718     m_UGsKOob1SZ1GnhcskvCSLB.obj
 0002:00000720       ?iv@?1??b_genrandu@@9@9    0000000180018720     m_UGsKOob1SZ1GnhcskvCSLB.obj
 0002:00000728       ?iv1@?1??b_genrandu@@9@9   0000000180018728     m_UGsKOob1SZ1GnhcskvCSLB.obj
 0002:000007e0       GS_ExceptionPointers       00000001800187e0     MSVCRT:gs_report.obj
 0002:00000d60       $unwind$cgxe_Quadrature_Phase_Shift_Keying_method_dispatcher 0000000180018d60     Quadrature_Phase_Shift_Keying_cgxe.obj
 0002:00000d68       $unwind$localtime          0000000180018d68     m_Jf2lRQWLrP2B1g4UrAzlsF.obj
 0002:00000d70       $unwind$time               0000000180018d70     m_Jf2lRQWLrP2B1g4UrAzlsF.obj
 0002:00000d78       $unwind$method_dispatcher_Jf2lRQWLrP2B1g4UrAzlsF 0000000180018d78     m_Jf2lRQWLrP2B1g4UrAzlsF.obj
 0002:00000d80       $unwind$cgxe_mdl_start     0000000180018d80     m_Jf2lRQWLrP2B1g4UrAzlsF.obj
 0002:00000d88       $unwind$cgxe_mdl_initialize 0000000180018d88     m_Jf2lRQWLrP2B1g4UrAzlsF.obj
 0002:00000d90       $unwind$cgxe_mdl_outputs   0000000180018d90     m_Jf2lRQWLrP2B1g4UrAzlsF.obj
 0002:00000d98       $unwind$cgxe_mdl_terminate 0000000180018d98     m_Jf2lRQWLrP2B1g4UrAzlsF.obj
 0002:00000da0       $unwind$mw__internal__system__init__fcn 0000000180018da0     m_Jf2lRQWLrP2B1g4UrAzlsF.obj
 0002:00000da8       $unwind$mw__internal__call__setup 0000000180018da8     m_Jf2lRQWLrP2B1g4UrAzlsF.obj
 0002:00000db0       $unwind$AWGNChannelBase_set_SNR 0000000180018db0     m_Jf2lRQWLrP2B1g4UrAzlsF.obj
 0002:00000dc0       $unwind$AWGNChannelBase_set_SignalPower 0000000180018dc0     m_Jf2lRQWLrP2B1g4UrAzlsF.obj
 0002:00000dd0       $unwind$SystemCore_setup   0000000180018dd0     m_Jf2lRQWLrP2B1g4UrAzlsF.obj
 0002:00000de4       $unwind$now                0000000180018de4     m_Jf2lRQWLrP2B1g4UrAzlsF.obj
 0002:00000df8       $unwind$b_mod              0000000180018df8     m_Jf2lRQWLrP2B1g4UrAzlsF.obj
 0002:00000e00       $unwind$mt19937ar_reset    0000000180018e00     m_Jf2lRQWLrP2B1g4UrAzlsF.obj
 0002:00000e08       $unwind$AWGNChannelBase_getStandardDeviation 0000000180018e08     m_Jf2lRQWLrP2B1g4UrAzlsF.obj
 0002:00000e18       $unwind$SystemCore_checkTunablePropChange 0000000180018e18     m_Jf2lRQWLrP2B1g4UrAzlsF.obj
 0002:00000e28       $unwind$mw__internal__call__reset 0000000180018e28     m_Jf2lRQWLrP2B1g4UrAzlsF.obj
 0002:00000e38       $unwind$mw__internal__call__step 0000000180018e38     m_Jf2lRQWLrP2B1g4UrAzlsF.obj
 0002:00000e48       $unwind$randn              0000000180018e48     m_Jf2lRQWLrP2B1g4UrAzlsF.obj
 0002:00000e50       $unwind$genrandu           0000000180018e50     m_Jf2lRQWLrP2B1g4UrAzlsF.obj
 0002:00000e58       $unwind$message            0000000180018e58     m_Jf2lRQWLrP2B1g4UrAzlsF.obj
 0002:00000e60       $unwind$getString          0000000180018e60     m_Jf2lRQWLrP2B1g4UrAzlsF.obj
 0002:00000e68       $unwind$error              0000000180018e68     m_Jf2lRQWLrP2B1g4UrAzlsF.obj
 0002:00000e70       $unwind$b_message          0000000180018e70     m_Jf2lRQWLrP2B1g4UrAzlsF.obj
 0002:00000e78       $unwind$eml_rand_shr3cong  0000000180018e78     m_Jf2lRQWLrP2B1g4UrAzlsF.obj
 0002:00000e80       $unwind$eml_rand_mt19937ar 0000000180018e80     m_Jf2lRQWLrP2B1g4UrAzlsF.obj
 0002:00000e88       $unwind$genrand_uint32_vector 0000000180018e88     m_Jf2lRQWLrP2B1g4UrAzlsF.obj
 0002:00000e90       $unwind$b_genrandu         0000000180018e90     m_Jf2lRQWLrP2B1g4UrAzlsF.obj
 0002:00000ea0       $unwind$init_simulink_io_address 0000000180018ea0     m_Jf2lRQWLrP2B1g4UrAzlsF.obj
 0002:00000ea8       $unwind$mdlOutputs_Jf2lRQWLrP2B1g4UrAzlsF 0000000180018ea8     m_Jf2lRQWLrP2B1g4UrAzlsF.obj
 0002:00000eb0       $unwind$mdlInitialize_Jf2lRQWLrP2B1g4UrAzlsF 0000000180018eb0     m_Jf2lRQWLrP2B1g4UrAzlsF.obj
 0002:00000eb8       $unwind$mdlUpdate_Jf2lRQWLrP2B1g4UrAzlsF 0000000180018eb8     m_Jf2lRQWLrP2B1g4UrAzlsF.obj
 0002:00000ec0       $unwind$mdlDerivatives_Jf2lRQWLrP2B1g4UrAzlsF 0000000180018ec0     m_Jf2lRQWLrP2B1g4UrAzlsF.obj
 0002:00000ec8       $unwind$mdlTerminate_Jf2lRQWLrP2B1g4UrAzlsF 0000000180018ec8     m_Jf2lRQWLrP2B1g4UrAzlsF.obj
 0002:00000ed0       $unwind$mdlEnable_Jf2lRQWLrP2B1g4UrAzlsF 0000000180018ed0     m_Jf2lRQWLrP2B1g4UrAzlsF.obj
 0002:00000ed8       $unwind$mdlDisable_Jf2lRQWLrP2B1g4UrAzlsF 0000000180018ed8     m_Jf2lRQWLrP2B1g4UrAzlsF.obj
 0002:00000ee0       $unwind$mdlStart_Jf2lRQWLrP2B1g4UrAzlsF 0000000180018ee0     m_Jf2lRQWLrP2B1g4UrAzlsF.obj
 0002:00000ee8       $unwind$cgxe_Jf2lRQWLrP2B1g4UrAzlsF_BuildInfoUpdate 0000000180018ee8     m_Jf2lRQWLrP2B1g4UrAzlsF.obj
 0002:00000ef0       $unwind$cgxe_Jf2lRQWLrP2B1g4UrAzlsF_fallback_info 0000000180018ef0     m_Jf2lRQWLrP2B1g4UrAzlsF.obj
 0002:00000ef8       $unwind$localtime          0000000180018ef8     m_UGsKOob1SZ1GnhcskvCSLB.obj
 0002:00000f00       $unwind$time               0000000180018f00     m_UGsKOob1SZ1GnhcskvCSLB.obj
 0002:00000f08       $unwind$method_dispatcher_UGsKOob1SZ1GnhcskvCSLB 0000000180018f08     m_UGsKOob1SZ1GnhcskvCSLB.obj
 0002:00000f10       $unwind$cgxe_mdl_start     0000000180018f10     m_UGsKOob1SZ1GnhcskvCSLB.obj
 0002:00000f18       $unwind$cgxe_mdl_initialize 0000000180018f18     m_UGsKOob1SZ1GnhcskvCSLB.obj
 0002:00000f20       $unwind$cgxe_mdl_outputs   0000000180018f20     m_UGsKOob1SZ1GnhcskvCSLB.obj
 0002:00000f28       $unwind$cgxe_mdl_terminate 0000000180018f28     m_UGsKOob1SZ1GnhcskvCSLB.obj
 0002:00000f30       $unwind$mw__internal__system__init__fcn 0000000180018f30     m_UGsKOob1SZ1GnhcskvCSLB.obj
 0002:00000f38       $unwind$mw__internal__call__setup 0000000180018f38     m_UGsKOob1SZ1GnhcskvCSLB.obj
 0002:00000f40       $unwind$AWGNChannelBase_set_SNR 0000000180018f40     m_UGsKOob1SZ1GnhcskvCSLB.obj
 0002:00000f50       $unwind$AWGNChannelBase_set_SignalPower 0000000180018f50     m_UGsKOob1SZ1GnhcskvCSLB.obj
 0002:00000f60       $unwind$SystemCore_setup   0000000180018f60     m_UGsKOob1SZ1GnhcskvCSLB.obj
 0002:00000f74       $unwind$now                0000000180018f74     m_UGsKOob1SZ1GnhcskvCSLB.obj
 0002:00000f88       $unwind$b_mod              0000000180018f88     m_UGsKOob1SZ1GnhcskvCSLB.obj
 0002:00000f90       $unwind$mt19937ar_reset    0000000180018f90     m_UGsKOob1SZ1GnhcskvCSLB.obj
 0002:00000f98       $unwind$AWGNChannelBase_getStandardDeviation 0000000180018f98     m_UGsKOob1SZ1GnhcskvCSLB.obj
 0002:00000fa8       $unwind$SystemCore_checkTunablePropChange 0000000180018fa8     m_UGsKOob1SZ1GnhcskvCSLB.obj
 0002:00000fb8       $unwind$mw__internal__call__reset 0000000180018fb8     m_UGsKOob1SZ1GnhcskvCSLB.obj
 0002:00000fc8       $unwind$mw__internal__call__step 0000000180018fc8     m_UGsKOob1SZ1GnhcskvCSLB.obj
 0002:00000fdc       $unwind$complexLike        0000000180018fdc     m_UGsKOob1SZ1GnhcskvCSLB.obj
 0002:00000ff0       $unwind$genrandu           0000000180018ff0     m_UGsKOob1SZ1GnhcskvCSLB.obj
 0002:00000ff8       $unwind$eml_rand_mt19937ar_stateful 0000000180018ff8     m_UGsKOob1SZ1GnhcskvCSLB.obj
 0002:0000100c       $unwind$message            000000018001900c     m_UGsKOob1SZ1GnhcskvCSLB.obj
 0002:00001014       $unwind$getString          0000000180019014     m_UGsKOob1SZ1GnhcskvCSLB.obj
 0002:0000101c       $unwind$error              000000018001901c     m_UGsKOob1SZ1GnhcskvCSLB.obj
 0002:00001024       $unwind$b_message          0000000180019024     m_UGsKOob1SZ1GnhcskvCSLB.obj
 0002:0000102c       $unwind$genrandn           000000018001902c     m_UGsKOob1SZ1GnhcskvCSLB.obj
 0002:00001034       $unwind$eml_rand_mt19937ar 0000000180019034     m_UGsKOob1SZ1GnhcskvCSLB.obj
 0002:0000103c       $unwind$genrand_uint32_vector 000000018001903c     m_UGsKOob1SZ1GnhcskvCSLB.obj
 0002:00001044       $unwind$b_genrandu         0000000180019044     m_UGsKOob1SZ1GnhcskvCSLB.obj
 0002:00001054       $unwind$init_simulink_io_address 0000000180019054     m_UGsKOob1SZ1GnhcskvCSLB.obj
 0002:0000105c       $unwind$mdlOutputs_UGsKOob1SZ1GnhcskvCSLB 000000018001905c     m_UGsKOob1SZ1GnhcskvCSLB.obj
 0002:00001064       $unwind$mdlInitialize_UGsKOob1SZ1GnhcskvCSLB 0000000180019064     m_UGsKOob1SZ1GnhcskvCSLB.obj
 0002:0000106c       $unwind$mdlUpdate_UGsKOob1SZ1GnhcskvCSLB 000000018001906c     m_UGsKOob1SZ1GnhcskvCSLB.obj
 0002:00001074       $unwind$mdlDerivatives_UGsKOob1SZ1GnhcskvCSLB 0000000180019074     m_UGsKOob1SZ1GnhcskvCSLB.obj
 0002:0000107c       $unwind$mdlTerminate_UGsKOob1SZ1GnhcskvCSLB 000000018001907c     m_UGsKOob1SZ1GnhcskvCSLB.obj
 0002:00001084       $unwind$mdlEnable_UGsKOob1SZ1GnhcskvCSLB 0000000180019084     m_UGsKOob1SZ1GnhcskvCSLB.obj
 0002:0000108c       $unwind$mdlDisable_UGsKOob1SZ1GnhcskvCSLB 000000018001908c     m_UGsKOob1SZ1GnhcskvCSLB.obj
 0002:00001094       $unwind$mdlStart_UGsKOob1SZ1GnhcskvCSLB 0000000180019094     m_UGsKOob1SZ1GnhcskvCSLB.obj
 0002:0000109c       $unwind$cgxe_UGsKOob1SZ1GnhcskvCSLB_BuildInfoUpdate 000000018001909c     m_UGsKOob1SZ1GnhcskvCSLB.obj
 0002:000010a4       $unwind$cgxe_UGsKOob1SZ1GnhcskvCSLB_fallback_info 00000001800190a4     m_UGsKOob1SZ1GnhcskvCSLB.obj
 0002:000010ac       $unwind$_vsnprintf_l       00000001800190ac     Quadrature_Phase_Shift_Keying_cgxe_registry.obj
 0002:000010b4       $unwind$_vsprintf_l        00000001800190b4     Quadrature_Phase_Shift_Keying_cgxe_registry.obj
 0002:000010bc       $unwind$sprintf            00000001800190bc     Quadrature_Phase_Shift_Keying_cgxe_registry.obj
 0002:000010c4       $unwind$mexFunction        00000001800190c4     Quadrature_Phase_Shift_Keying_cgxe_registry.obj
 0002:000010d4       $unwind$_ssSetInputPortDirectFeedThroughFcn 00000001800190d4     Quadrature_Phase_Shift_Keying_cgxe_registry.obj
 0002:000010e4       $unwind$_ssSetRWorkValueFcn 00000001800190e4     Quadrature_Phase_Shift_Keying_cgxe_registry.obj
 0002:000010ec       $unwind$_ssGetRWorkValueFcn 00000001800190ec     Quadrature_Phase_Shift_Keying_cgxe_registry.obj
 0002:000010f4       $unwind$_ssSetIWorkValueFcn 00000001800190f4     Quadrature_Phase_Shift_Keying_cgxe_registry.obj
 0002:000010fc       $unwind$_ssGetIWorkValueFcn 00000001800190fc     Quadrature_Phase_Shift_Keying_cgxe_registry.obj
 0002:00001104       $unwind$_ssSetPWorkValueFcn 0000000180019104     Quadrature_Phase_Shift_Keying_cgxe_registry.obj
 0002:0000110c       $unwind$_ssGetPWorkValueFcn 000000018001910c     Quadrature_Phase_Shift_Keying_cgxe_registry.obj
 0002:00001114       $unwind$_ssGetInputPortSignalFcn 0000000180019114     Quadrature_Phase_Shift_Keying_cgxe_registry.obj
 0002:00001124       $unwind$_ssGetInputPortBufferDstPortFcn 0000000180019124     Quadrature_Phase_Shift_Keying_cgxe_registry.obj
 0002:0000112c       $unwind$_ssGetInputPortSignalPtrsFcn 000000018001912c     Quadrature_Phase_Shift_Keying_cgxe_registry.obj
 0002:0000113c       $unwind$ssGetParameterTuningCompliance 000000018001913c     Quadrature_Phase_Shift_Keying_cgxe_registry.obj
 0002:00001144       $unwind$_ssReadInputStringFcn 0000000180019144     Quadrature_Phase_Shift_Keying_cgxe_registry.obj
 0002:0000114c       $unwind$ssGetDTypeIdFromMxArray 000000018001914c     Quadrature_Phase_Shift_Keying_cgxe_registry.obj
 0002:00001154       $unwind$ssWriteRTWMx2dMatParam 0000000180019154     Quadrature_Phase_Shift_Keying_cgxe_registry.obj
 0002:0000115c       $unwind$ssWriteRTWMxVectParam 000000018001915c     Quadrature_Phase_Shift_Keying_cgxe_registry.obj
 0002:00001164       $unwind$ssWriteRTWParameters 0000000180019164     Quadrature_Phase_Shift_Keying_cgxe_registry.obj
 0002:0000116c       $unwind$ssWriteRTWParamSettings 000000018001916c     Quadrature_Phase_Shift_Keying_cgxe_registry.obj
 0002:00001174       $unwind$ssWriteRTWStr      0000000180019174     Quadrature_Phase_Shift_Keying_cgxe_registry.obj
 0002:0000117c       $unwind$ssWriteRTWWorkVect 000000018001917c     Quadrature_Phase_Shift_Keying_cgxe_registry.obj
 0002:00001190       $unwind$ssWarning          0000000180019190     Quadrature_Phase_Shift_Keying_cgxe_registry.obj
 0002:000011a4       $unwind$ssGetRootSS        00000001800191a4     Quadrature_Phase_Shift_Keying_cgxe_registry.obj
 0002:000011ac       $unwind$ssGetParentSS      00000001800191ac     Quadrature_Phase_Shift_Keying_cgxe_registry.obj
 0002:000011b4       $unwind$ssWriteRTWNameValuePair 00000001800191b4     Quadrature_Phase_Shift_Keying_cgxe_registry.obj
 0002:000011bc       $unwind$_ssSetInputPortMatrixDimensions 00000001800191bc     Quadrature_Phase_Shift_Keying_cgxe_registry.obj
 0002:000011c8       $unwind$_ssSetOutputPortMatrixDimensions 00000001800191c8     Quadrature_Phase_Shift_Keying_cgxe_registry.obj
 0002:000011d4       $unwind$_ssSetInputPortVectorDimension 00000001800191d4     Quadrature_Phase_Shift_Keying_cgxe_registry.obj
 0002:000011e0       $unwind$_ssSetOutputPortVectorDimension 00000001800191e0     Quadrature_Phase_Shift_Keying_cgxe_registry.obj
 0002:000011ec       $unwind$ssIsRunTimeParamTunable 00000001800191ec     Quadrature_Phase_Shift_Keying_cgxe_registry.obj
 0002:000011f4       $unwind$ssGetSFuncBlockHandle 00000001800191f4     Quadrature_Phase_Shift_Keying_cgxe_registry.obj
 0002:000011fc       $unwind$_ssGetCallSystemNumFcnCallDestinations 00000001800191fc     Quadrature_Phase_Shift_Keying_cgxe_registry.obj
 0002:00001204       $unwind$_ssGetCurrentInputPortWidth 0000000180019204     Quadrature_Phase_Shift_Keying_cgxe_registry.obj
 0002:0000120c       $unwind$_ssGetCurrentOutputPortWidth 000000018001920c     Quadrature_Phase_Shift_Keying_cgxe_registry.obj
 0002:00001214       $unwind$ssGetIsZeroCrossControlDisabled 0000000180019214     Quadrature_Phase_Shift_Keying_cgxe_registry.obj
 0002:0000121c       $unwind$ssSetIsInputPortUsedForContZcSignal 000000018001921c     Quadrature_Phase_Shift_Keying_cgxe_registry.obj
 0002:00001224       $unwind$ssSetZcSignalIsZcElementDisc 0000000180019224     Quadrature_Phase_Shift_Keying_cgxe_registry.obj
 0002:00001234       $unwind$ssSetZcSignalName  0000000180019234     Quadrature_Phase_Shift_Keying_cgxe_registry.obj
 0002:0000123c       $unwind$ssSetZcSignalWidth 000000018001923c     Quadrature_Phase_Shift_Keying_cgxe_registry.obj
 0002:00001244       $unwind$ssSetZcSignalZcEventType 0000000180019244     Quadrature_Phase_Shift_Keying_cgxe_registry.obj
 0002:0000124c       $unwind$ssSetZcSignalType  000000018001924c     Quadrature_Phase_Shift_Keying_cgxe_registry.obj
 0002:00001254       $unwind$ssSetZcSignalZcTol 0000000180019254     Quadrature_Phase_Shift_Keying_cgxe_registry.obj
 0002:0000125c       $unwind$ssSetZcSignalNeedsEventNotification 000000018001925c     Quadrature_Phase_Shift_Keying_cgxe_registry.obj
 0002:00001264       $unwind$ssCreateAndAddZcSignalInfo 0000000180019264     Quadrature_Phase_Shift_Keying_cgxe_registry.obj
 0002:0000126c       $unwind$ssCloneAndAddZcSignalInfo 000000018001926c     Quadrature_Phase_Shift_Keying_cgxe_registry.obj
 0002:00001274       $unwind$ssGetNumZcSignals  0000000180019274     Quadrature_Phase_Shift_Keying_cgxe_registry.obj
 0002:0000127c       $unwind$ssGetZcSignalVector 000000018001927c     Quadrature_Phase_Shift_Keying_cgxe_registry.obj
 0002:00001284       $unwind$ssGetZcSignalName  0000000180019284     Quadrature_Phase_Shift_Keying_cgxe_registry.obj
 0002:0000128c       $unwind$ssGetZcSignalWidth 000000018001928c     Quadrature_Phase_Shift_Keying_cgxe_registry.obj
 0002:00001294       $unwind$ssGetZcSignalZcEventType 0000000180019294     Quadrature_Phase_Shift_Keying_cgxe_registry.obj
 0002:0000129c       $unwind$ssGetZcSignalZcEvents 000000018001929c     Quadrature_Phase_Shift_Keying_cgxe_registry.obj
 0002:000012a4       $unwind$ssGetZcSignalType  00000001800192a4     Quadrature_Phase_Shift_Keying_cgxe_registry.obj
 0002:000012ac       $unwind$ssGetZcSignalZcTol 00000001800192ac     Quadrature_Phase_Shift_Keying_cgxe_registry.obj
 0002:000012b4       $unwind$ssGetZcSignalNeedsEventNotification 00000001800192b4     Quadrature_Phase_Shift_Keying_cgxe_registry.obj
 0002:000012bc       $unwind$ssGetZcSignalIsZcElementDisc 00000001800192bc     Quadrature_Phase_Shift_Keying_cgxe_registry.obj
 0002:000012cc       $unwind$ssGetIsInputPortElementContinuous 00000001800192cc     Quadrature_Phase_Shift_Keying_cgxe_registry.obj
 0002:000012dc       $unwind$_ssGetAbsTol       00000001800192dc     Quadrature_Phase_Shift_Keying_cgxe_registry.obj
 0002:000012e4       $unwind$_ssSetInputPortReusableFcn 00000001800192e4     Quadrature_Phase_Shift_Keying_cgxe_registry.obj
 0002:000012ec       $unwind$_ssSetOutputPortReusableFcn 00000001800192ec     Quadrature_Phase_Shift_Keying_cgxe_registry.obj
 0002:000012f4       $unwind$_ssSetSymbolicDimsSupport 00000001800192f4     Quadrature_Phase_Shift_Keying_cgxe_registry.obj
 0002:000012fc       $unwind$_ssRegisterSymbolicDimsExpr 00000001800192fc     Quadrature_Phase_Shift_Keying_cgxe_registry.obj
 0002:00001304       $unwind$_ssRegisterSymbolicDimsMATLABExpr 0000000180019304     Quadrature_Phase_Shift_Keying_cgxe_registry.obj
 0002:0000130c       $unwind$_ssRegisterSymbolicDims 000000018001930c     Quadrature_Phase_Shift_Keying_cgxe_registry.obj
 0002:00001314       $unwind$_ssRegisterSymbolicDimsString 0000000180019314     Quadrature_Phase_Shift_Keying_cgxe_registry.obj
 0002:0000131c       $unwind$_ssRegisterSymbolicDimsIntValue 000000018001931c     Quadrature_Phase_Shift_Keying_cgxe_registry.obj
 0002:00001324       $unwind$_ssRegisterSymbolicEqualRelation 0000000180019324     Quadrature_Phase_Shift_Keying_cgxe_registry.obj
 0002:0000132c       $unwind$_ssRegisterSymbolicEqualValue 000000018001932c     Quadrature_Phase_Shift_Keying_cgxe_registry.obj
 0002:00001334       $unwind$_ssAmendLeadingSymbolicDims 0000000180019334     Quadrature_Phase_Shift_Keying_cgxe_registry.obj
 0002:0000133c       $unwind$_ssAmendTrailingSymbolicDims 000000018001933c     Quadrature_Phase_Shift_Keying_cgxe_registry.obj
 0002:00001344       $unwind$_ssRegisterSymbolicDimsPlus 0000000180019344     Quadrature_Phase_Shift_Keying_cgxe_registry.obj
 0002:0000134c       $unwind$_ssRegisterSymbolicDimsMinus 000000018001934c     Quadrature_Phase_Shift_Keying_cgxe_registry.obj
 0002:00001354       $unwind$_ssRegisterSymbolicDimsMultiply 0000000180019354     Quadrature_Phase_Shift_Keying_cgxe_registry.obj
 0002:0000135c       $unwind$_ssRegisterSymbolicDimsDivide 000000018001935c     Quadrature_Phase_Shift_Keying_cgxe_registry.obj
 0002:00001364       $unwind$_ssGetNumSymbolicDims 0000000180019364     Quadrature_Phase_Shift_Keying_cgxe_registry.obj
 0002:0000136c       $unwind$_ssGetSymbolicDim  000000018001936c     Quadrature_Phase_Shift_Keying_cgxe_registry.obj
 0002:00001374       $unwind$_ssSetInputPortSymbolicDimsId 0000000180019374     Quadrature_Phase_Shift_Keying_cgxe_registry.obj
 0002:0000137c       $unwind$_ssGetCompInputPortSymbolicDimsId 000000018001937c     Quadrature_Phase_Shift_Keying_cgxe_registry.obj
 0002:00001384       $unwind$_ssSetCompInputPortSymbolicDimsId 0000000180019384     Quadrature_Phase_Shift_Keying_cgxe_registry.obj
 0002:0000138c       $unwind$_ssSetOutputPortSymbolicDimsId 000000018001938c     Quadrature_Phase_Shift_Keying_cgxe_registry.obj
 0002:00001394       $unwind$_ssGetCompOutputPortSymbolicDimsId 0000000180019394     Quadrature_Phase_Shift_Keying_cgxe_registry.obj
 0002:0000139c       $unwind$_ssSetCompOutputPortSymbolicDimsId 000000018001939c     Quadrature_Phase_Shift_Keying_cgxe_registry.obj
 0002:000013a4       $unwind$_ssGetDWorkSymbolicDimsId 00000001800193a4     Quadrature_Phase_Shift_Keying_cgxe_registry.obj
 0002:000013ac       $unwind$_ssSetDWorkSymbolicDimsId 00000001800193ac     Quadrature_Phase_Shift_Keying_cgxe_registry.obj
 0002:000013b4       $unwind$_ssGetCompDWorkSymbolicDimsId 00000001800193b4     Quadrature_Phase_Shift_Keying_cgxe_registry.obj
 0002:000013bc       $unwind$_ssSetCompDWorkSymbolicDimsId 00000001800193bc     Quadrature_Phase_Shift_Keying_cgxe_registry.obj
 0002:000013c4       $unwind$_ssCreateSLCGStringBuffer 00000001800193c4     Quadrature_Phase_Shift_Keying_cgxe_registry.obj
 0002:000013cc       $unwind$_ssAddToSLCGStringBuffer 00000001800193cc     Quadrature_Phase_Shift_Keying_cgxe_registry.obj
 0002:000013d4       $unwind$_ssGetPointerContainedData 00000001800193d4     Quadrature_Phase_Shift_Keying_cgxe_registry.obj
 0002:000013dc       $unwind$_ssGetPointerContainedDataWidth 00000001800193dc     Quadrature_Phase_Shift_Keying_cgxe_registry.obj
 0002:000013e4       $unwind$_ssRegisterDynamicArrayDataTypeFcn 00000001800193e4     Quadrature_Phase_Shift_Keying_cgxe_registry.obj
 0002:000013ec       $unwind$_ssGetDynamicArrayContainedDataCurrentWidthFcn 00000001800193ec     Quadrature_Phase_Shift_Keying_cgxe_registry.obj
 0002:000013f4       $unwind$_ssGetDynamicArrayContainedDataFcn 00000001800193f4     Quadrature_Phase_Shift_Keying_cgxe_registry.obj
 0002:000013fc       $unwind$_ssGetInputPortDynamicArrayDataFcn 00000001800193fc     Quadrature_Phase_Shift_Keying_cgxe_registry.obj
 0002:00001404       $unwind$_ssGetOutputPortDynamicArrayDataFcn 0000000180019404     Quadrature_Phase_Shift_Keying_cgxe_registry.obj
 0002:0000140c       $unwind$_ssGetInputPortDynamicArrayContainedDataFcn 000000018001940c     Quadrature_Phase_Shift_Keying_cgxe_registry.obj
 0002:00001414       $unwind$_ssGetOutputPortDynamicArrayContainedDataFcn 0000000180019414     Quadrature_Phase_Shift_Keying_cgxe_registry.obj
 0002:0000141c       $unwind$_ssGetDynamicArrayDWorkContainedDataFcn 000000018001941c     Quadrature_Phase_Shift_Keying_cgxe_registry.obj
 0002:00001424       $unwind$mdlStart           0000000180019424     Quadrature_Phase_Shift_Keying_cgxe_registry.obj
 0002:0000142c       $unwind$mdlInitializeConditions 000000018001942c     Quadrature_Phase_Shift_Keying_cgxe_registry.obj
 0002:00001434       $unwind$mdlUpdate          0000000180019434     Quadrature_Phase_Shift_Keying_cgxe_registry.obj
 0002:0000143c       $unwind$mdlOutputs         000000018001943c     Quadrature_Phase_Shift_Keying_cgxe_registry.obj
 0002:00001444       $unwind$mdlTerminate       0000000180019444     Quadrature_Phase_Shift_Keying_cgxe_registry.obj
 0002:0000144c       $unwind$cgxe_get_supported_modules 000000018001944c     Quadrature_Phase_Shift_Keying_cgxe_registry.obj
 0002:00001454       $unwind$cgxe_process_get_checksums 0000000180019454     Quadrature_Phase_Shift_Keying_cgxe_registry.obj
 0002:00001464       $unwind$cgxe_mex_unlock_call 0000000180019464     Quadrature_Phase_Shift_Keying_cgxe_registry.obj
 0002:0000146c       $unwind$cgxe_unpack_simstruct 000000018001946c     Quadrature_Phase_Shift_Keying_cgxe_registry.obj
 0002:00001474       $unwind$cgxe_get_sim_state 0000000180019474     Quadrature_Phase_Shift_Keying_cgxe_registry.obj
 0002:0000147c       $unwind$cgxe_set_sim_state 000000018001947c     Quadrature_Phase_Shift_Keying_cgxe_registry.obj
 0002:00001484       $unwind$cgxe_get_BuildInfoUpdate 0000000180019484     Quadrature_Phase_Shift_Keying_cgxe_registry.obj
 0002:00001494       $unwind$cgxe_get_fallback_info 0000000180019494     Quadrature_Phase_Shift_Keying_cgxe_registry.obj
 0002:000014a4       $unwind$ProcessMexSfunctionCmdLineCall 00000001800194a4     Quadrature_Phase_Shift_Keying_cgxe_registry.obj
 0002:000014b4       $unwind$_RegNumInputPortsCB 00000001800194b4     Quadrature_Phase_Shift_Keying_cgxe_registry.obj
 0002:000014bc       $unwind$_RegNumOutputPortsCB 00000001800194bc     Quadrature_Phase_Shift_Keying_cgxe_registry.obj
 0002:000014c4       $unwind$_CreateSimStruct   00000001800194c4     Quadrature_Phase_Shift_Keying_cgxe_registry.obj
 0002:000014cc       $unwind$_ProcessMexSfunctionCmdLineCall 00000001800194cc     Quadrature_Phase_Shift_Keying_cgxe_registry.obj
 0002:000014dc       $unwind$ReportIndexOutOfBoundsError 00000001800194dc     Quadrature_Phase_Shift_Keying_cgxe_registry.obj
 0002:000014ec       $unwind$__report_securityfailure 00000001800194ec     MSVCRT:gs_report.obj
 0002:000014f4       $unwind$__report_securityfailureEx 00000001800194f4     MSVCRT:gs_report.obj
 0002:000014fc       $unwind$__report_rangecheckfailure 00000001800194fc     MSVCRT:gs_report.obj
 0002:00001504       $unwind$__report_gsfailure 0000000180019504     MSVCRT:gs_report.obj
 0002:0000150c       $unwind$capture_current_context 000000018001950c     MSVCRT:gs_report.obj
 0002:00001518       $unwind$capture_previous_context 0000000180019518     MSVCRT:gs_report.obj
 0002:00001524       $unwind$__raise_securityfailure 0000000180019524     MSVCRT:gs_report.obj
 0002:0000152c       $unwind$__GSHandlerCheckCommon 000000018001952c     MSVCRT:gshandler.obj
 0002:00001534       $unwind$__GSHandlerCheck   0000000180019534     MSVCRT:gshandler.obj
 0002:00001540       $xdatasym                  0000000180019540     MSVCRT:amdsecgs.obj
 0002:00001544       $unwind$?dllmain_crt_process_attach@@YAHQEAUHINSTANCE__@@QEAX@Z 0000000180019544     MSVCRT:dll_dllmain.obj
 0002:00001580       $unwind$?fin$0@?0??dllmain_crt_process_attach@@YAHQEAUHINSTANCE__@@QEAX@Z@4HA 0000000180019580     MSVCRT:dll_dllmain.obj
 0002:00001588       $unwind$?dllmain_crt_process_detach@@YAH_N@Z 0000000180019588     MSVCRT:dll_dllmain.obj
 0002:000015dc       $unwind$?fin$0@?0??dllmain_crt_process_detach@@YAH_N@Z@4HA 00000001800195dc     MSVCRT:dll_dllmain.obj
 0002:000015e4       $unwind$?fin$1@?0??dllmain_crt_process_detach@@YAH_N@Z@4HA 00000001800195e4     MSVCRT:dll_dllmain.obj
 0002:000015ec       $unwind$?dllmain_crt_dispatch@@YAHQEAUHINSTANCE__@@KQEAX@Z 00000001800195ec     MSVCRT:dll_dllmain.obj
 0002:000015f4       $unwind$?dllmain_dispatch@@YAHQEAUHINSTANCE__@@KQEAX@Z 00000001800195f4     MSVCRT:dll_dllmain.obj
 0002:0000161c       $unwind$?filt$0@?0??dllmain_dispatch@@YAHQEAUHINSTANCE__@@KQEAX@Z@4HA 000000018001961c     MSVCRT:dll_dllmain.obj
 0002:00001624       $unwind$_DllMainCRTStartup 0000000180019624     MSVCRT:dll_dllmain.obj
 0002:00001634       $unwind$__security_init_cookie 0000000180019634     MSVCRT:gs_support.obj
 0002:00001640       $unwind$__get_entropy      0000000180019640     MSVCRT:gs_support.obj
 0002:00001648       $unwind$DllMain            0000000180019648     MSVCRT:dll_dllmain_stub.obj
 0002:00001650       $unwind$__scrt_initialize_default_local_stdio_options 0000000180019650     MSVCRT:default_local_stdio_options.obj
 0002:00001658       $unwind$atexit             0000000180019658     MSVCRT:utility.obj
 0002:00001660       $unwind$_onexit            0000000180019660     MSVCRT:utility.obj
 0002:00001668       $unwind$__scrt_is_nonwritable_in_current_image 0000000180019668     MSVCRT:utility.obj
 0002:00001688       $unwind$__scrt_is_nonwritable_in_current_image$filt$0 0000000180019688     MSVCRT:utility.obj
 0002:00001690       $unwind$__scrt_acquire_startup_lock 0000000180019690     MSVCRT:utility.obj
 0002:00001698       $unwind$__scrt_release_startup_lock 0000000180019698     MSVCRT:utility.obj
 0002:000016a0       $unwind$__scrt_initialize_crt 00000001800196a0     MSVCRT:utility.obj
 0002:000016a8       $unwind$__scrt_uninitialize_crt 00000001800196a8     MSVCRT:utility.obj
 0002:000016b0       $unwind$__scrt_initialize_onexit_tables 00000001800196b0     MSVCRT:utility.obj
 0002:000016b8       $unwind$__scrt_dllmain_exception_filter 00000001800196b8     MSVCRT:utility.obj
 0002:000016cc       $unwind$__scrt_dllmain_before_initialize_c 00000001800196cc     MSVCRT:utility.obj
 0002:000016d4       $unwind$__scrt_dllmain_after_initialize_c 00000001800196d4     MSVCRT:utility.obj
 0002:000016dc       $unwind$__scrt_dllmain_uninitialize_c 00000001800196dc     MSVCRT:utility.obj
 0002:000016e4       $unwind$__scrt_dllmain_uninitialize_critical 00000001800196e4     MSVCRT:utility.obj
 0002:000016ec       $unwind$__scrt_dllmain_crt_thread_attach 00000001800196ec     MSVCRT:utility.obj
 0002:000016f4       $unwind$__scrt_dllmain_crt_thread_detach 00000001800196f4     MSVCRT:utility.obj
 0002:000016fc       $unwind$?configure_argv@__scrt_narrow_argv_policy@@SAHXZ 00000001800196fc     MSVCRT:utility.obj
 0002:00001704       $unwind$__scrt_get_show_window_mode 0000000180019704     MSVCRT:utility_desktop.obj
 0002:0000170c       $unwind$__scrt_is_managed_app 000000018001970c     MSVCRT:utility_desktop.obj
 0002:00001714       $unwind$__scrt_fastfail    0000000180019714     MSVCRT:utility_desktop.obj
 0002:00001724       $unwind$__scrt_unhandled_exception_filter 0000000180019724     MSVCRT:utility_desktop.obj
 0002:00001730       $unwind$_RTC_Initialize    0000000180019730     MSVCRT:initsect.obj
 0002:0000173c       $unwind$_RTC_Terminate     000000018001973c     MSVCRT:initsect.obj
 0002:00001748       $unwind$__castguard_check_failure_os_handled 0000000180019748     MSVCRT:guard_support.obj
 0002:00001750       $unwind$__castguard_slow_path_check_os_handled 0000000180019750     MSVCRT:guard_support.obj
 0002:00001758       $unwind$__isa_available_init 0000000180019758     MSVCRT:cpu_disp.obj
 0002:00001768       $xdatasym                  0000000180019768     MSVCRT:guard_dispatch.obj
 0002:00001770       $xdatasym                  0000000180019770     MSVCRT:guard_xfg_dispatch.obj
 0002:00001780       .edata                     0000000180019780     Quadrature_Phase_Shift_Keying_cgxe.exp
 0002:000017a8       rgpv                       00000001800197a8     Quadrature_Phase_Shift_Keying_cgxe.exp
 0002:000017b0       rgszName                   00000001800197b0     Quadrature_Phase_Shift_Keying_cgxe.exp
 0002:000017b8       rgwOrd                     00000001800197b8     Quadrature_Phase_Shift_Keying_cgxe.exp
 0002:000017bc       szName                     00000001800197bc     Quadrature_Phase_Shift_Keying_cgxe.exp
 0002:000017e6       $N00001                    00000001800197e6     Quadrature_Phase_Shift_Keying_cgxe.exp
 0002:000017f2       $N00002                    00000001800197f2     Quadrature_Phase_Shift_Keying_cgxe.exp
 0002:00001de8       .idata$6                   0000000180019de8     libmx:libmx.dll
 0002:00001e4c       .idata$6                   0000000180019e4c     libmex:libmex.dll
 0002:00001f42       .idata$6                   0000000180019f42     libmwmathutil:libmwmathutil.dll
 0002:00001fc8       .idata$6                   0000000180019fc8     libemlrt:libemlrt.dll
 0002:000020bc       .idata$6                   000000018001a0bc     libmwcgxert:libmwcgxert.dll
 0002:00002258       .idata$6                   000000018001a258     kernel32:KERNEL32.dll
 0002:000022e6       .idata$6                   000000018001a2e6     vcruntime:VCRUNTIME140.dll
 0002:0000244e       .idata$6                   000000018001a44e     ucrt:api-ms-win-crt-heap-l1-1-0.dll
 0002:0000246e       .idata$6                   000000018001a46e     ucrt:api-ms-win-crt-time-l1-1-0.dll
 0002:0000248e       .idata$6                   000000018001a48e     ucrt:api-ms-win-crt-string-l1-1-0.dll
 0002:000024b0       .idata$6                   000000018001a4b0     ucrt:api-ms-win-crt-stdio-l1-1-0.dll
 0002:000024d0       .idata$6                   000000018001a4d0     ucrt:api-ms-win-crt-runtime-l1-1-0.dll
 0003:00000000       $SG21953                   000000018001b000     m_Jf2lRQWLrP2B1g4UrAzlsF.obj
 0003:0000000c       $SG22001                   000000018001b00c     m_Jf2lRQWLrP2B1g4UrAzlsF.obj
 0003:00000010       $SG21954                   000000018001b010     m_Jf2lRQWLrP2B1g4UrAzlsF.obj
 0003:00000050       $SG21956                   000000018001b050     m_Jf2lRQWLrP2B1g4UrAzlsF.obj
 0003:00000060       $SG21957                   000000018001b060     m_Jf2lRQWLrP2B1g4UrAzlsF.obj
 0003:000000a4       $SG21959                   000000018001b0a4     m_Jf2lRQWLrP2B1g4UrAzlsF.obj
 0003:000000b0       $SG21960                   000000018001b0b0     m_Jf2lRQWLrP2B1g4UrAzlsF.obj
 0003:000000f4       $SG21962                   000000018001b0f4     m_Jf2lRQWLrP2B1g4UrAzlsF.obj
 0003:00000100       $SG21963                   000000018001b100     m_Jf2lRQWLrP2B1g4UrAzlsF.obj
 0003:0000014c       $SG22004                   000000018001b14c     m_Jf2lRQWLrP2B1g4UrAzlsF.obj
 0003:00000150       $SG21965                   000000018001b150     m_Jf2lRQWLrP2B1g4UrAzlsF.obj
 0003:00000160       $SG21966                   000000018001b160     m_Jf2lRQWLrP2B1g4UrAzlsF.obj
 0003:000001b0       $SG21968                   000000018001b1b0     m_Jf2lRQWLrP2B1g4UrAzlsF.obj
 0003:000001c0       $SG21969                   000000018001b1c0     m_Jf2lRQWLrP2B1g4UrAzlsF.obj
 0003:00000210       $SG21983                   000000018001b210     m_Jf2lRQWLrP2B1g4UrAzlsF.obj
 0003:00000220       $SG21984                   000000018001b220     m_Jf2lRQWLrP2B1g4UrAzlsF.obj
 0003:00000264       $SG22007                   000000018001b264     m_Jf2lRQWLrP2B1g4UrAzlsF.obj
 0003:00000268       $SG21986                   000000018001b268     m_Jf2lRQWLrP2B1g4UrAzlsF.obj
 0003:00000280       $SG21987                   000000018001b280     m_Jf2lRQWLrP2B1g4UrAzlsF.obj
 0003:000002c4       $SG22010                   000000018001b2c4     m_Jf2lRQWLrP2B1g4UrAzlsF.obj
 0003:000002c8       $SG21989                   000000018001b2c8     m_Jf2lRQWLrP2B1g4UrAzlsF.obj
 0003:000002d8       $SG22002                   000000018001b2d8     m_Jf2lRQWLrP2B1g4UrAzlsF.obj
 0003:00000310       $SG21990                   000000018001b310     m_Jf2lRQWLrP2B1g4UrAzlsF.obj
 0003:00000354       $SG22013                   000000018001b354     m_Jf2lRQWLrP2B1g4UrAzlsF.obj
 0003:00000358       $SG21992                   000000018001b358     m_Jf2lRQWLrP2B1g4UrAzlsF.obj
 0003:00000364       $SG22016                   000000018001b364     m_Jf2lRQWLrP2B1g4UrAzlsF.obj
 0003:00000368       $SG22005                   000000018001b368     m_Jf2lRQWLrP2B1g4UrAzlsF.obj
 0003:000003a0       $SG21993                   000000018001b3a0     m_Jf2lRQWLrP2B1g4UrAzlsF.obj
 0003:000003e0       $SG21995                   000000018001b3e0     m_Jf2lRQWLrP2B1g4UrAzlsF.obj
 0003:000003f0       $SG21996                   000000018001b3f0     m_Jf2lRQWLrP2B1g4UrAzlsF.obj
 0003:00000430       $SG21998                   000000018001b430     m_Jf2lRQWLrP2B1g4UrAzlsF.obj
 0003:00000440       $SG21999                   000000018001b440     m_Jf2lRQWLrP2B1g4UrAzlsF.obj
 0003:00000480       $SG22008                   000000018001b480     m_Jf2lRQWLrP2B1g4UrAzlsF.obj
 0003:000004b8       $SG22011                   000000018001b4b8     m_Jf2lRQWLrP2B1g4UrAzlsF.obj
 0003:000004f0       $SG22014                   000000018001b4f0     m_Jf2lRQWLrP2B1g4UrAzlsF.obj
 0003:00000528       $SG22017                   000000018001b528     m_Jf2lRQWLrP2B1g4UrAzlsF.obj
 0003:00000560       $SG22019                   000000018001b560     m_Jf2lRQWLrP2B1g4UrAzlsF.obj
 0003:00000564       $SG22022                   000000018001b564     m_Jf2lRQWLrP2B1g4UrAzlsF.obj
 0003:00000568       $SG22020                   000000018001b568     m_Jf2lRQWLrP2B1g4UrAzlsF.obj
 0003:000005a0       $SG22023                   000000018001b5a0     m_Jf2lRQWLrP2B1g4UrAzlsF.obj
 0003:000005d8       $SG22025                   000000018001b5d8     m_Jf2lRQWLrP2B1g4UrAzlsF.obj
 0003:000005f4       $SG22088                   000000018001b5f4     m_Jf2lRQWLrP2B1g4UrAzlsF.obj
 0003:00000600       $SG22026                   000000018001b600     m_Jf2lRQWLrP2B1g4UrAzlsF.obj
 0003:00000658       $SG22028                   000000018001b658     m_Jf2lRQWLrP2B1g4UrAzlsF.obj
 0003:00000670       $SG22029                   000000018001b670     m_Jf2lRQWLrP2B1g4UrAzlsF.obj
 0003:000006b4       $SG22160                   000000018001b6b4     m_Jf2lRQWLrP2B1g4UrAzlsF.obj
 0003:000006b8       $SG22031                   000000018001b6b8     m_Jf2lRQWLrP2B1g4UrAzlsF.obj
 0003:000006d8       $SG22034                   000000018001b6d8     m_Jf2lRQWLrP2B1g4UrAzlsF.obj
 0003:000006f0       $SG22032                   000000018001b6f0     m_Jf2lRQWLrP2B1g4UrAzlsF.obj
 0003:00000744       $SG22091                   000000018001b744     m_Jf2lRQWLrP2B1g4UrAzlsF.obj
 0003:00000750       $SG22035                   000000018001b750     m_Jf2lRQWLrP2B1g4UrAzlsF.obj
 0003:0000079c       $SG22205                   000000018001b79c     m_Jf2lRQWLrP2B1g4UrAzlsF.obj
 0003:000007a0       $SG22037                   000000018001b7a0     m_Jf2lRQWLrP2B1g4UrAzlsF.obj
 0003:000007b0       $SG22038                   000000018001b7b0     m_Jf2lRQWLrP2B1g4UrAzlsF.obj
 0003:000007f0       $SG22040                   000000018001b7f0     m_Jf2lRQWLrP2B1g4UrAzlsF.obj
 0003:00000800       $SG22041                   000000018001b800     m_Jf2lRQWLrP2B1g4UrAzlsF.obj
 0003:00000840       $SG22043                   000000018001b840     m_Jf2lRQWLrP2B1g4UrAzlsF.obj
 0003:00000850       $SG22044                   000000018001b850     m_Jf2lRQWLrP2B1g4UrAzlsF.obj
 0003:00000890       $SG22046                   000000018001b890     m_Jf2lRQWLrP2B1g4UrAzlsF.obj
 0003:000008a0       $SG22047                   000000018001b8a0     m_Jf2lRQWLrP2B1g4UrAzlsF.obj
 0003:000008e0       $SG22049                   000000018001b8e0     m_Jf2lRQWLrP2B1g4UrAzlsF.obj
 0003:000008e8       $SG22050                   000000018001b8e8     m_Jf2lRQWLrP2B1g4UrAzlsF.obj
 0003:00000928       $SG22052                   000000018001b928     m_Jf2lRQWLrP2B1g4UrAzlsF.obj
 0003:00000938       $SG22089                   000000018001b938     m_Jf2lRQWLrP2B1g4UrAzlsF.obj
 0003:00000970       $SG22053                   000000018001b970     m_Jf2lRQWLrP2B1g4UrAzlsF.obj
 0003:000009b8       $SG22055                   000000018001b9b8     m_Jf2lRQWLrP2B1g4UrAzlsF.obj
 0003:000009c8       $SG22092                   000000018001b9c8     m_Jf2lRQWLrP2B1g4UrAzlsF.obj
 0003:00000a00       $SG22056                   000000018001ba00     m_Jf2lRQWLrP2B1g4UrAzlsF.obj
 0003:00000a48       $SG22070                   000000018001ba48     m_Jf2lRQWLrP2B1g4UrAzlsF.obj
 0003:00000a54       $SG22166                   000000018001ba54     m_Jf2lRQWLrP2B1g4UrAzlsF.obj
 0003:00000a60       $SG22071                   000000018001ba60     m_Jf2lRQWLrP2B1g4UrAzlsF.obj
 0003:00000aa0       $SG22073                   000000018001baa0     m_Jf2lRQWLrP2B1g4UrAzlsF.obj
 0003:00000ab0       $SG22074                   000000018001bab0     m_Jf2lRQWLrP2B1g4UrAzlsF.obj
 0003:00000af0       $SG22076                   000000018001baf0     m_Jf2lRQWLrP2B1g4UrAzlsF.obj
 0003:00000b00       $SG22077                   000000018001bb00     m_Jf2lRQWLrP2B1g4UrAzlsF.obj
 0003:00000b40       $SG22079                   000000018001bb40     m_Jf2lRQWLrP2B1g4UrAzlsF.obj
 0003:00000b50       $SG22080                   000000018001bb50     m_Jf2lRQWLrP2B1g4UrAzlsF.obj
 0003:00000b98       $SG22082                   000000018001bb98     m_Jf2lRQWLrP2B1g4UrAzlsF.obj
 0003:00000ba8       $SG22112                   000000018001bba8     m_Jf2lRQWLrP2B1g4UrAzlsF.obj
 0003:00000bc0       $SG22083                   000000018001bbc0     m_Jf2lRQWLrP2B1g4UrAzlsF.obj
 0003:00000c08       $SG22085                   000000018001bc08     m_Jf2lRQWLrP2B1g4UrAzlsF.obj
 0003:00000c14       $SG22169                   000000018001bc14     m_Jf2lRQWLrP2B1g4UrAzlsF.obj
 0003:00000c20       $SG22086                   000000018001bc20     m_Jf2lRQWLrP2B1g4UrAzlsF.obj
 0003:00000c60       $SG22094                   000000018001bc60     m_Jf2lRQWLrP2B1g4UrAzlsF.obj
 0003:00000c70       $SG22095                   000000018001bc70     m_Jf2lRQWLrP2B1g4UrAzlsF.obj
 0003:00000cb8       $SG22097                   000000018001bcb8     m_Jf2lRQWLrP2B1g4UrAzlsF.obj
 0003:00000cc8       $SG22109                   000000018001bcc8     m_Jf2lRQWLrP2B1g4UrAzlsF.obj
 0003:00000ce8       $SG22115                   000000018001bce8     m_Jf2lRQWLrP2B1g4UrAzlsF.obj
 0003:00000d00       $SG22098                   000000018001bd00     m_Jf2lRQWLrP2B1g4UrAzlsF.obj
 0003:00000d48       $SG22100                   000000018001bd48     m_Jf2lRQWLrP2B1g4UrAzlsF.obj
 0003:00000d58       $SG22118                   000000018001bd58     m_Jf2lRQWLrP2B1g4UrAzlsF.obj
 0003:00000d70       $SG22101                   000000018001bd70     m_Jf2lRQWLrP2B1g4UrAzlsF.obj
 0003:00000db8       $SG22103                   000000018001bdb8     m_Jf2lRQWLrP2B1g4UrAzlsF.obj
 0003:00000dc8       $SG22121                   000000018001bdc8     m_Jf2lRQWLrP2B1g4UrAzlsF.obj
 0003:00000de0       $SG22104                   000000018001bde0     m_Jf2lRQWLrP2B1g4UrAzlsF.obj
 0003:00000e28       $SG22106                   000000018001be28     m_Jf2lRQWLrP2B1g4UrAzlsF.obj
 0003:00000e38       $SG22124                   000000018001be38     m_Jf2lRQWLrP2B1g4UrAzlsF.obj
 0003:00000e50       $SG22107                   000000018001be50     m_Jf2lRQWLrP2B1g4UrAzlsF.obj
 0003:00000e98       $SG22127                   000000018001be98     m_Jf2lRQWLrP2B1g4UrAzlsF.obj
 0003:00000eb4       $SG22181                   000000018001beb4     m_Jf2lRQWLrP2B1g4UrAzlsF.obj
 0003:00000ec0       $SG22110                   000000018001bec0     m_Jf2lRQWLrP2B1g4UrAzlsF.obj
 0003:00000f20       $SG22113                   000000018001bf20     m_Jf2lRQWLrP2B1g4UrAzlsF.obj
 0003:00000f70       $SG22116                   000000018001bf70     m_Jf2lRQWLrP2B1g4UrAzlsF.obj
 0003:00000fc0       $SG22119                   000000018001bfc0     m_Jf2lRQWLrP2B1g4UrAzlsF.obj
 0003:00001010       $SG22122                   000000018001c010     m_Jf2lRQWLrP2B1g4UrAzlsF.obj
 0003:00001060       $SG22125                   000000018001c060     m_Jf2lRQWLrP2B1g4UrAzlsF.obj
 0003:000010b0       $SG22128                   000000018001c0b0     m_Jf2lRQWLrP2B1g4UrAzlsF.obj
 0003:00001108       $SG22130                   000000018001c108     m_Jf2lRQWLrP2B1g4UrAzlsF.obj
 0003:00001120       $SG22131                   000000018001c120     m_Jf2lRQWLrP2B1g4UrAzlsF.obj
 0003:00001168       $SG22133                   000000018001c168     m_Jf2lRQWLrP2B1g4UrAzlsF.obj
 0003:00001180       $SG22134                   000000018001c180     m_Jf2lRQWLrP2B1g4UrAzlsF.obj
 0003:000011c8       $SG22136                   000000018001c1c8     m_Jf2lRQWLrP2B1g4UrAzlsF.obj
 0003:000011e0       $SG22137                   000000018001c1e0     m_Jf2lRQWLrP2B1g4UrAzlsF.obj
 0003:00001228       $SG22139                   000000018001c228     m_Jf2lRQWLrP2B1g4UrAzlsF.obj
 0003:00001240       $SG22140                   000000018001c240     m_Jf2lRQWLrP2B1g4UrAzlsF.obj
 0003:00001288       $SG22142                   000000018001c288     m_Jf2lRQWLrP2B1g4UrAzlsF.obj
 0003:000012a0       $SG22143                   000000018001c2a0     m_Jf2lRQWLrP2B1g4UrAzlsF.obj
 0003:000012e8       $SG22145                   000000018001c2e8     m_Jf2lRQWLrP2B1g4UrAzlsF.obj
 0003:00001300       $SG22146                   000000018001c300     m_Jf2lRQWLrP2B1g4UrAzlsF.obj
 0003:00001348       $SG22148                   000000018001c348     m_Jf2lRQWLrP2B1g4UrAzlsF.obj
 0003:00001360       $SG22149                   000000018001c360     m_Jf2lRQWLrP2B1g4UrAzlsF.obj
 0003:000013b0       $SG22151                   000000018001c3b0     m_Jf2lRQWLrP2B1g4UrAzlsF.obj
 0003:000013c8       $SG22154                   000000018001c3c8     m_Jf2lRQWLrP2B1g4UrAzlsF.obj
 0003:000013e0       $SG22152                   000000018001c3e0     m_Jf2lRQWLrP2B1g4UrAzlsF.obj
 0003:00001430       $SG22155                   000000018001c430     m_Jf2lRQWLrP2B1g4UrAzlsF.obj
 0003:00001480       $SG22157                   000000018001c480     m_Jf2lRQWLrP2B1g4UrAzlsF.obj
 0003:00001490       $SG22158                   000000018001c490     m_Jf2lRQWLrP2B1g4UrAzlsF.obj
 0003:000014e0       $SG22161                   000000018001c4e0     m_Jf2lRQWLrP2B1g4UrAzlsF.obj
 0003:00001518       $SG22163                   000000018001c518     m_Jf2lRQWLrP2B1g4UrAzlsF.obj
 0003:00001530       $SG22164                   000000018001c530     m_Jf2lRQWLrP2B1g4UrAzlsF.obj
 0003:00001578       $SG22167                   000000018001c578     m_Jf2lRQWLrP2B1g4UrAzlsF.obj
 0003:000015b0       $SG22170                   000000018001c5b0     m_Jf2lRQWLrP2B1g4UrAzlsF.obj
 0003:000015e8       $SG22172                   000000018001c5e8     m_Jf2lRQWLrP2B1g4UrAzlsF.obj
 0003:00001600       $SG22173                   000000018001c600     m_Jf2lRQWLrP2B1g4UrAzlsF.obj
 0003:00001648       $SG22175                   000000018001c648     m_Jf2lRQWLrP2B1g4UrAzlsF.obj
 0003:00001660       $SG22176                   000000018001c660     m_Jf2lRQWLrP2B1g4UrAzlsF.obj
 0003:000016a8       $SG22178                   000000018001c6a8     m_Jf2lRQWLrP2B1g4UrAzlsF.obj
 0003:000016c0       $SG22179                   000000018001c6c0     m_Jf2lRQWLrP2B1g4UrAzlsF.obj
 0003:00001708       $SG22182                   000000018001c708     m_Jf2lRQWLrP2B1g4UrAzlsF.obj
 0003:00001740       $SG22184                   000000018001c740     m_Jf2lRQWLrP2B1g4UrAzlsF.obj
 0003:00001750       $SG22185                   000000018001c750     m_Jf2lRQWLrP2B1g4UrAzlsF.obj
 0003:000017a0       $SG22187                   000000018001c7a0     m_Jf2lRQWLrP2B1g4UrAzlsF.obj
 0003:000017b0       $SG22188                   000000018001c7b0     m_Jf2lRQWLrP2B1g4UrAzlsF.obj
 0003:00001800       $SG22190                   000000018001c800     m_Jf2lRQWLrP2B1g4UrAzlsF.obj
 0003:00001818       $SG22193                   000000018001c818     m_Jf2lRQWLrP2B1g4UrAzlsF.obj
 0003:00001830       $SG22191                   000000018001c830     m_Jf2lRQWLrP2B1g4UrAzlsF.obj
 0003:00001880       $SG22194                   000000018001c880     m_Jf2lRQWLrP2B1g4UrAzlsF.obj
 0003:000018c8       $SG22196                   000000018001c8c8     m_Jf2lRQWLrP2B1g4UrAzlsF.obj
 0003:000018e0       $SG22197                   000000018001c8e0     m_Jf2lRQWLrP2B1g4UrAzlsF.obj
 0003:00001928       $SG22199                   000000018001c928     m_Jf2lRQWLrP2B1g4UrAzlsF.obj
 0003:00001940       $SG22200                   000000018001c940     m_Jf2lRQWLrP2B1g4UrAzlsF.obj
 0003:00001988       $SG22202                   000000018001c988     m_Jf2lRQWLrP2B1g4UrAzlsF.obj
 0003:000019a0       $SG22203                   000000018001c9a0     m_Jf2lRQWLrP2B1g4UrAzlsF.obj
 0003:000019e8       $SG22206                   000000018001c9e8     m_Jf2lRQWLrP2B1g4UrAzlsF.obj
 0003:00001a20       emlrtRSI                   000000018001ca20     m_Jf2lRQWLrP2B1g4UrAzlsF.obj
 0003:00001a38       b_emlrtRSI                 000000018001ca38     m_Jf2lRQWLrP2B1g4UrAzlsF.obj
 0003:00001a50       c_emlrtRSI                 000000018001ca50     m_Jf2lRQWLrP2B1g4UrAzlsF.obj
 0003:00001a68       d_emlrtRSI                 000000018001ca68     m_Jf2lRQWLrP2B1g4UrAzlsF.obj
 0003:00001a80       e_emlrtRSI                 000000018001ca80     m_Jf2lRQWLrP2B1g4UrAzlsF.obj
 0003:00001a98       f_emlrtRSI                 000000018001ca98     m_Jf2lRQWLrP2B1g4UrAzlsF.obj
 0003:00001ab0       g_emlrtRSI                 000000018001cab0     m_Jf2lRQWLrP2B1g4UrAzlsF.obj
 0003:00001ac8       h_emlrtRSI                 000000018001cac8     m_Jf2lRQWLrP2B1g4UrAzlsF.obj
 0003:00001ae0       i_emlrtRSI                 000000018001cae0     m_Jf2lRQWLrP2B1g4UrAzlsF.obj
 0003:00001af8       j_emlrtRSI                 000000018001caf8     m_Jf2lRQWLrP2B1g4UrAzlsF.obj
 0003:00001b10       k_emlrtRSI                 000000018001cb10     m_Jf2lRQWLrP2B1g4UrAzlsF.obj
 0003:00001b28       l_emlrtRSI                 000000018001cb28     m_Jf2lRQWLrP2B1g4UrAzlsF.obj
 0003:00001b40       m_emlrtRSI                 000000018001cb40     m_Jf2lRQWLrP2B1g4UrAzlsF.obj
 0003:00001b58       n_emlrtRSI                 000000018001cb58     m_Jf2lRQWLrP2B1g4UrAzlsF.obj
 0003:00001b70       o_emlrtRSI                 000000018001cb70     m_Jf2lRQWLrP2B1g4UrAzlsF.obj
 0003:00001b88       p_emlrtRSI                 000000018001cb88     m_Jf2lRQWLrP2B1g4UrAzlsF.obj
 0003:00001ba0       q_emlrtRSI                 000000018001cba0     m_Jf2lRQWLrP2B1g4UrAzlsF.obj
 0003:00001bb8       r_emlrtRSI                 000000018001cbb8     m_Jf2lRQWLrP2B1g4UrAzlsF.obj
 0003:00001bd0       s_emlrtRSI                 000000018001cbd0     m_Jf2lRQWLrP2B1g4UrAzlsF.obj
 0003:00001be8       t_emlrtRSI                 000000018001cbe8     m_Jf2lRQWLrP2B1g4UrAzlsF.obj
 0003:00001c00       u_emlrtRSI                 000000018001cc00     m_Jf2lRQWLrP2B1g4UrAzlsF.obj
 0003:00001c18       v_emlrtRSI                 000000018001cc18     m_Jf2lRQWLrP2B1g4UrAzlsF.obj
 0003:00001c30       w_emlrtRSI                 000000018001cc30     m_Jf2lRQWLrP2B1g4UrAzlsF.obj
 0003:00001c48       x_emlrtRSI                 000000018001cc48     m_Jf2lRQWLrP2B1g4UrAzlsF.obj
 0003:00001c60       y_emlrtRSI                 000000018001cc60     m_Jf2lRQWLrP2B1g4UrAzlsF.obj
 0003:00001c78       ab_emlrtRSI                000000018001cc78     m_Jf2lRQWLrP2B1g4UrAzlsF.obj
 0003:00001c90       bb_emlrtRSI                000000018001cc90     m_Jf2lRQWLrP2B1g4UrAzlsF.obj
 0003:00001ca8       cb_emlrtRSI                000000018001cca8     m_Jf2lRQWLrP2B1g4UrAzlsF.obj
 0003:00001cc0       db_emlrtRSI                000000018001ccc0     m_Jf2lRQWLrP2B1g4UrAzlsF.obj
 0003:00001cd8       eb_emlrtRSI                000000018001ccd8     m_Jf2lRQWLrP2B1g4UrAzlsF.obj
 0003:00001cf0       fb_emlrtRSI                000000018001ccf0     m_Jf2lRQWLrP2B1g4UrAzlsF.obj
 0003:00001d08       gb_emlrtRSI                000000018001cd08     m_Jf2lRQWLrP2B1g4UrAzlsF.obj
 0003:00001d20       hb_emlrtRSI                000000018001cd20     m_Jf2lRQWLrP2B1g4UrAzlsF.obj
 0003:00001d38       ib_emlrtRSI                000000018001cd38     m_Jf2lRQWLrP2B1g4UrAzlsF.obj
 0003:00001d50       jb_emlrtRSI                000000018001cd50     m_Jf2lRQWLrP2B1g4UrAzlsF.obj
 0003:00001d68       kb_emlrtRSI                000000018001cd68     m_Jf2lRQWLrP2B1g4UrAzlsF.obj
 0003:00001d80       lb_emlrtRSI                000000018001cd80     m_Jf2lRQWLrP2B1g4UrAzlsF.obj
 0003:00001d98       mb_emlrtRSI                000000018001cd98     m_Jf2lRQWLrP2B1g4UrAzlsF.obj
 0003:00001db0       nb_emlrtRSI                000000018001cdb0     m_Jf2lRQWLrP2B1g4UrAzlsF.obj
 0003:00001dc8       ob_emlrtRSI                000000018001cdc8     m_Jf2lRQWLrP2B1g4UrAzlsF.obj
 0003:00001de0       pb_emlrtRSI                000000018001cde0     m_Jf2lRQWLrP2B1g4UrAzlsF.obj
 0003:00001df8       qb_emlrtRSI                000000018001cdf8     m_Jf2lRQWLrP2B1g4UrAzlsF.obj
 0003:00001e10       rb_emlrtRSI                000000018001ce10     m_Jf2lRQWLrP2B1g4UrAzlsF.obj
 0003:00001e28       sb_emlrtRSI                000000018001ce28     m_Jf2lRQWLrP2B1g4UrAzlsF.obj
 0003:00001e40       tb_emlrtRSI                000000018001ce40     m_Jf2lRQWLrP2B1g4UrAzlsF.obj
 0003:00001e58       ub_emlrtRSI                000000018001ce58     m_Jf2lRQWLrP2B1g4UrAzlsF.obj
 0003:00001e70       vb_emlrtRSI                000000018001ce70     m_Jf2lRQWLrP2B1g4UrAzlsF.obj
 0003:00001e88       wb_emlrtRSI                000000018001ce88     m_Jf2lRQWLrP2B1g4UrAzlsF.obj
 0003:00001ea0       xb_emlrtRSI                000000018001cea0     m_Jf2lRQWLrP2B1g4UrAzlsF.obj
 0003:00001eb8       yb_emlrtRSI                000000018001ceb8     m_Jf2lRQWLrP2B1g4UrAzlsF.obj
 0003:00001ed0       ac_emlrtRSI                000000018001ced0     m_Jf2lRQWLrP2B1g4UrAzlsF.obj
 0003:00001ee8       bc_emlrtRSI                000000018001cee8     m_Jf2lRQWLrP2B1g4UrAzlsF.obj
 0003:00001f00       cc_emlrtRSI                000000018001cf00     m_Jf2lRQWLrP2B1g4UrAzlsF.obj
 0003:00001f18       dc_emlrtRSI                000000018001cf18     m_Jf2lRQWLrP2B1g4UrAzlsF.obj
 0003:00001f30       ec_emlrtRSI                000000018001cf30     m_Jf2lRQWLrP2B1g4UrAzlsF.obj
 0003:00001f48       fc_emlrtRSI                000000018001cf48     m_Jf2lRQWLrP2B1g4UrAzlsF.obj
 0003:00001f60       gc_emlrtRSI                000000018001cf60     m_Jf2lRQWLrP2B1g4UrAzlsF.obj
 0003:00001f78       hc_emlrtRSI                000000018001cf78     m_Jf2lRQWLrP2B1g4UrAzlsF.obj
 0003:00001f90       ic_emlrtRSI                000000018001cf90     m_Jf2lRQWLrP2B1g4UrAzlsF.obj
 0003:00001fa8       jc_emlrtRSI                000000018001cfa8     m_Jf2lRQWLrP2B1g4UrAzlsF.obj
 0003:00001fc0       kc_emlrtRSI                000000018001cfc0     m_Jf2lRQWLrP2B1g4UrAzlsF.obj
 0003:00001fd8       lc_emlrtRSI                000000018001cfd8     m_Jf2lRQWLrP2B1g4UrAzlsF.obj
 0003:00001ff0       mc_emlrtRSI                000000018001cff0     m_Jf2lRQWLrP2B1g4UrAzlsF.obj
 0003:00002008       nc_emlrtRSI                000000018001d008     m_Jf2lRQWLrP2B1g4UrAzlsF.obj
 0003:00002020       oc_emlrtRSI                000000018001d020     m_Jf2lRQWLrP2B1g4UrAzlsF.obj
 0003:00002038       emlrtMCI                   000000018001d038     m_Jf2lRQWLrP2B1g4UrAzlsF.obj
 0003:00002050       b_emlrtMCI                 000000018001d050     m_Jf2lRQWLrP2B1g4UrAzlsF.obj
 0003:00002068       c_emlrtMCI                 000000018001d068     m_Jf2lRQWLrP2B1g4UrAzlsF.obj
 0003:00002080       d_emlrtMCI                 000000018001d080     m_Jf2lRQWLrP2B1g4UrAzlsF.obj
 0003:00002098       e_emlrtMCI                 000000018001d098     m_Jf2lRQWLrP2B1g4UrAzlsF.obj
 0003:000020b0       f_emlrtMCI                 000000018001d0b0     m_Jf2lRQWLrP2B1g4UrAzlsF.obj
 0003:000020c8       h_emlrtMCI                 000000018001d0c8     m_Jf2lRQWLrP2B1g4UrAzlsF.obj
 0003:000020e0       i_emlrtMCI                 000000018001d0e0     m_Jf2lRQWLrP2B1g4UrAzlsF.obj
 0003:000020f8       j_emlrtMCI                 000000018001d0f8     m_Jf2lRQWLrP2B1g4UrAzlsF.obj
 0003:00002110       k_emlrtMCI                 000000018001d110     m_Jf2lRQWLrP2B1g4UrAzlsF.obj
 0003:00002128       pc_emlrtRSI                000000018001d128     m_Jf2lRQWLrP2B1g4UrAzlsF.obj
 0003:00002140       qc_emlrtRSI                000000018001d140     m_Jf2lRQWLrP2B1g4UrAzlsF.obj
 0003:00002158       rc_emlrtRSI                000000018001d158     m_Jf2lRQWLrP2B1g4UrAzlsF.obj
 0003:00002170       sc_emlrtRSI                000000018001d170     m_Jf2lRQWLrP2B1g4UrAzlsF.obj
 0003:00002188       tc_emlrtRSI                000000018001d188     m_Jf2lRQWLrP2B1g4UrAzlsF.obj
 0003:000021a0       uc_emlrtRSI                000000018001d1a0     m_Jf2lRQWLrP2B1g4UrAzlsF.obj
 0003:000021b8       vc_emlrtRSI                000000018001d1b8     m_Jf2lRQWLrP2B1g4UrAzlsF.obj
 0003:000021d0       wc_emlrtRSI                000000018001d1d0     m_Jf2lRQWLrP2B1g4UrAzlsF.obj
 0003:000021e8       xc_emlrtRSI                000000018001d1e8     m_Jf2lRQWLrP2B1g4UrAzlsF.obj
 0003:00002200       $SG22391                   000000018001d200     m_Jf2lRQWLrP2B1g4UrAzlsF.obj
 0003:00002218       $SG22392                   000000018001d218     m_Jf2lRQWLrP2B1g4UrAzlsF.obj
 0003:00002240       ?uv@?1??mw__internal__system__init__fcn@@9@9 000000018001d240     m_Jf2lRQWLrP2B1g4UrAzlsF.obj
 0003:00002c04       ?f_u@?1??AWGNChannelBase_set_SNR@@9@9 000000018001dc04     m_Jf2lRQWLrP2B1g4UrAzlsF.obj
 0003:00002c08       ?d_u@?1??AWGNChannelBase_set_SNR@@9@9 000000018001dc08     m_Jf2lRQWLrP2B1g4UrAzlsF.obj
 0003:00002c38       ?b_u@?1??AWGNChannelBase_set_SNR@@9@9 000000018001dc38     m_Jf2lRQWLrP2B1g4UrAzlsF.obj
 0003:00002c50       ?f_u@?1??AWGNChannelBase_set_SignalPower@@9@9 000000018001dc50     m_Jf2lRQWLrP2B1g4UrAzlsF.obj
 0003:00002c80       ?j_u@?1??AWGNChannelBase_set_SignalPower@@9@9 000000018001dc80     m_Jf2lRQWLrP2B1g4UrAzlsF.obj
 0003:00002cb0       ?l_u@?1??AWGNChannelBase_set_SignalPower@@9@9 000000018001dcb0     m_Jf2lRQWLrP2B1g4UrAzlsF.obj
 0003:00002ce0       ?b_u@?1??AWGNChannelBase_set_SignalPower@@9@9 000000018001dce0     m_Jf2lRQWLrP2B1g4UrAzlsF.obj
 0003:00002cf8       ?e_u@?1??AWGNChannelBase_set_SignalPower@@9@9 000000018001dcf8     m_Jf2lRQWLrP2B1g4UrAzlsF.obj
 0003:00002d10       ?i_u@?1??AWGNChannelBase_set_SignalPower@@9@9 000000018001dd10     m_Jf2lRQWLrP2B1g4UrAzlsF.obj
 0003:00002d28       ?k_u@?1??AWGNChannelBase_set_SignalPower@@9@9 000000018001dd28     m_Jf2lRQWLrP2B1g4UrAzlsF.obj
 0003:00002d34       ?d_u@?1??AWGNChannelBase_getStandardDeviation@@9@9 000000018001dd34     m_Jf2lRQWLrP2B1g4UrAzlsF.obj
 0003:00002d38       ?b_u@?1??SystemCore_setup@@9@9 000000018001dd38     m_Jf2lRQWLrP2B1g4UrAzlsF.obj
 0003:00002d6c       ?h_u@?1??mw__internal__call__step@@9@9 000000018001dd6c     m_Jf2lRQWLrP2B1g4UrAzlsF.obj
 0003:00002d70       ?h_u@?1??SystemCore_setup@@9@9 000000018001dd70     m_Jf2lRQWLrP2B1g4UrAzlsF.obj
 0003:00002da4       $SG23128                   000000018001dda4     m_Jf2lRQWLrP2B1g4UrAzlsF.obj
 0003:00002db0       ?f_u@?1??SystemCore_setup@@9@9 000000018001ddb0     m_Jf2lRQWLrP2B1g4UrAzlsF.obj
 0003:00002dc8       ?d_u@?1??SystemCore_setup@@9@9 000000018001ddc8     m_Jf2lRQWLrP2B1g4UrAzlsF.obj
 0003:00002dd0       ?b_u@?1??AWGNChannelBase_getStandardDeviation@@9@9 000000018001ddd0     m_Jf2lRQWLrP2B1g4UrAzlsF.obj
 0003:00002df0       ?b_u@?1??SystemCore_checkTunablePropChange@@9@9 000000018001ddf0     m_Jf2lRQWLrP2B1g4UrAzlsF.obj
 0003:00002e20       ?b_u@?1??mw__internal__call__reset@@9@9 000000018001de20     m_Jf2lRQWLrP2B1g4UrAzlsF.obj
 0003:00002e50       ?d_u@?1??mw__internal__call__reset@@9@9 000000018001de50     m_Jf2lRQWLrP2B1g4UrAzlsF.obj
 0003:00002e7c       ?f_u@?1??mw__internal__call__reset@@9@9 000000018001de7c     m_Jf2lRQWLrP2B1g4UrAzlsF.obj
 0003:00002e88       ?g_u@?1??mw__internal__call__step@@9@9 000000018001de88     m_Jf2lRQWLrP2B1g4UrAzlsF.obj
 0003:00002ec0       ?f_u@?1??mw__internal__call__step@@9@9 000000018001dec0     m_Jf2lRQWLrP2B1g4UrAzlsF.obj
 0003:00002ef8       ?b_u@?1??mw__internal__call__step@@9@9 000000018001def8     m_Jf2lRQWLrP2B1g4UrAzlsF.obj
 0003:00002f28       $SG23104                   000000018001df28     m_Jf2lRQWLrP2B1g4UrAzlsF.obj
 0003:00002f30       $SG23115                   000000018001df30     m_Jf2lRQWLrP2B1g4UrAzlsF.obj
 0003:00002f40       $SG23139                   000000018001df40     m_Jf2lRQWLrP2B1g4UrAzlsF.obj
 0003:00002f48       ?c_u@?1??b_genrandu@@9@9   000000018001df48     m_Jf2lRQWLrP2B1g4UrAzlsF.obj
 0003:00002f70       ?dv@?1??eml_rand_shr3cong@@9@9 000000018001df70     m_Jf2lRQWLrP2B1g4UrAzlsF.obj
 0003:00003178       $SG23404                   000000018001e178     m_Jf2lRQWLrP2B1g4UrAzlsF.obj
 0003:00003190       ?dv@?1??eml_rand_mt19937ar@@9@9 000000018001e190     m_Jf2lRQWLrP2B1g4UrAzlsF.obj
 0003:00003998       $SG23405                   000000018001e998     m_Jf2lRQWLrP2B1g4UrAzlsF.obj
 0003:000039b0       ?dv1@?1??eml_rand_mt19937ar@@9@9 000000018001e9b0     m_Jf2lRQWLrP2B1g4UrAzlsF.obj
 0003:000041b8       $SG23390                   000000018001f1b8     m_Jf2lRQWLrP2B1g4UrAzlsF.obj
 0003:000041c8       $SG23391                   000000018001f1c8     m_Jf2lRQWLrP2B1g4UrAzlsF.obj
 0003:000041d8       $SG23402                   000000018001f1d8     m_Jf2lRQWLrP2B1g4UrAzlsF.obj
 0003:000041e8       $SG23406                   000000018001f1e8     m_Jf2lRQWLrP2B1g4UrAzlsF.obj
 0003:000041f0       $SG21953                   000000018001f1f0     m_UGsKOob1SZ1GnhcskvCSLB.obj
 0003:000041fc       $SG22001                   000000018001f1fc     m_UGsKOob1SZ1GnhcskvCSLB.obj
 0003:00004200       $SG21954                   000000018001f200     m_UGsKOob1SZ1GnhcskvCSLB.obj
 0003:00004240       $SG21956                   000000018001f240     m_UGsKOob1SZ1GnhcskvCSLB.obj
 0003:00004250       $SG21957                   000000018001f250     m_UGsKOob1SZ1GnhcskvCSLB.obj
 0003:00004294       $SG21959                   000000018001f294     m_UGsKOob1SZ1GnhcskvCSLB.obj
 0003:000042a0       $SG21960                   000000018001f2a0     m_UGsKOob1SZ1GnhcskvCSLB.obj
 0003:000042e4       $SG21962                   000000018001f2e4     m_UGsKOob1SZ1GnhcskvCSLB.obj
 0003:000042f0       $SG21963                   000000018001f2f0     m_UGsKOob1SZ1GnhcskvCSLB.obj
 0003:0000433c       $SG22004                   000000018001f33c     m_UGsKOob1SZ1GnhcskvCSLB.obj
 0003:00004340       $SG21965                   000000018001f340     m_UGsKOob1SZ1GnhcskvCSLB.obj
 0003:00004350       $SG21966                   000000018001f350     m_UGsKOob1SZ1GnhcskvCSLB.obj
 0003:000043a0       $SG21968                   000000018001f3a0     m_UGsKOob1SZ1GnhcskvCSLB.obj
 0003:000043b0       $SG21969                   000000018001f3b0     m_UGsKOob1SZ1GnhcskvCSLB.obj
 0003:00004400       $SG21983                   000000018001f400     m_UGsKOob1SZ1GnhcskvCSLB.obj
 0003:00004410       $SG21984                   000000018001f410     m_UGsKOob1SZ1GnhcskvCSLB.obj
 0003:00004454       $SG22007                   000000018001f454     m_UGsKOob1SZ1GnhcskvCSLB.obj
 0003:00004458       $SG21986                   000000018001f458     m_UGsKOob1SZ1GnhcskvCSLB.obj
 0003:00004470       $SG21987                   000000018001f470     m_UGsKOob1SZ1GnhcskvCSLB.obj
 0003:000044b4       $SG22010                   000000018001f4b4     m_UGsKOob1SZ1GnhcskvCSLB.obj
 0003:000044b8       $SG21989                   000000018001f4b8     m_UGsKOob1SZ1GnhcskvCSLB.obj
 0003:000044c8       $SG22002                   000000018001f4c8     m_UGsKOob1SZ1GnhcskvCSLB.obj
 0003:00004500       $SG21990                   000000018001f500     m_UGsKOob1SZ1GnhcskvCSLB.obj
 0003:00004544       $SG22013                   000000018001f544     m_UGsKOob1SZ1GnhcskvCSLB.obj
 0003:00004548       $SG21992                   000000018001f548     m_UGsKOob1SZ1GnhcskvCSLB.obj
 0003:00004554       $SG22016                   000000018001f554     m_UGsKOob1SZ1GnhcskvCSLB.obj
 0003:00004558       $SG22005                   000000018001f558     m_UGsKOob1SZ1GnhcskvCSLB.obj
 0003:00004590       $SG21993                   000000018001f590     m_UGsKOob1SZ1GnhcskvCSLB.obj
 0003:000045d0       $SG21995                   000000018001f5d0     m_UGsKOob1SZ1GnhcskvCSLB.obj
 0003:000045e0       $SG21996                   000000018001f5e0     m_UGsKOob1SZ1GnhcskvCSLB.obj
 0003:00004620       $SG21998                   000000018001f620     m_UGsKOob1SZ1GnhcskvCSLB.obj
 0003:00004630       $SG21999                   000000018001f630     m_UGsKOob1SZ1GnhcskvCSLB.obj
 0003:00004670       $SG22008                   000000018001f670     m_UGsKOob1SZ1GnhcskvCSLB.obj
 0003:000046a8       $SG22011                   000000018001f6a8     m_UGsKOob1SZ1GnhcskvCSLB.obj
 0003:000046e0       $SG22014                   000000018001f6e0     m_UGsKOob1SZ1GnhcskvCSLB.obj
 0003:00004718       $SG22017                   000000018001f718     m_UGsKOob1SZ1GnhcskvCSLB.obj
 0003:00004750       $SG22019                   000000018001f750     m_UGsKOob1SZ1GnhcskvCSLB.obj
 0003:00004754       $SG22022                   000000018001f754     m_UGsKOob1SZ1GnhcskvCSLB.obj
 0003:00004758       $SG22020                   000000018001f758     m_UGsKOob1SZ1GnhcskvCSLB.obj
 0003:00004790       $SG22023                   000000018001f790     m_UGsKOob1SZ1GnhcskvCSLB.obj
 0003:000047c8       $SG22025                   000000018001f7c8     m_UGsKOob1SZ1GnhcskvCSLB.obj
 0003:000047e4       $SG22088                   000000018001f7e4     m_UGsKOob1SZ1GnhcskvCSLB.obj
 0003:000047f0       $SG22026                   000000018001f7f0     m_UGsKOob1SZ1GnhcskvCSLB.obj
 0003:00004848       $SG22028                   000000018001f848     m_UGsKOob1SZ1GnhcskvCSLB.obj
 0003:00004860       $SG22029                   000000018001f860     m_UGsKOob1SZ1GnhcskvCSLB.obj
 0003:000048a4       $SG22169                   000000018001f8a4     m_UGsKOob1SZ1GnhcskvCSLB.obj
 0003:000048a8       $SG22031                   000000018001f8a8     m_UGsKOob1SZ1GnhcskvCSLB.obj
 0003:000048c8       $SG22034                   000000018001f8c8     m_UGsKOob1SZ1GnhcskvCSLB.obj
 0003:000048e0       $SG22032                   000000018001f8e0     m_UGsKOob1SZ1GnhcskvCSLB.obj
 0003:00004934       $SG22091                   000000018001f934     m_UGsKOob1SZ1GnhcskvCSLB.obj
 0003:00004940       $SG22035                   000000018001f940     m_UGsKOob1SZ1GnhcskvCSLB.obj
 0003:0000498c       $SG22214                   000000018001f98c     m_UGsKOob1SZ1GnhcskvCSLB.obj
 0003:00004990       $SG22037                   000000018001f990     m_UGsKOob1SZ1GnhcskvCSLB.obj
 0003:000049a0       $SG22038                   000000018001f9a0     m_UGsKOob1SZ1GnhcskvCSLB.obj
 0003:000049e0       $SG22040                   000000018001f9e0     m_UGsKOob1SZ1GnhcskvCSLB.obj
 0003:000049f0       $SG22041                   000000018001f9f0     m_UGsKOob1SZ1GnhcskvCSLB.obj
 0003:00004a30       $SG22043                   000000018001fa30     m_UGsKOob1SZ1GnhcskvCSLB.obj
 0003:00004a40       $SG22044                   000000018001fa40     m_UGsKOob1SZ1GnhcskvCSLB.obj
 0003:00004a80       $SG22046                   000000018001fa80     m_UGsKOob1SZ1GnhcskvCSLB.obj
 0003:00004a90       $SG22047                   000000018001fa90     m_UGsKOob1SZ1GnhcskvCSLB.obj
 0003:00004ad0       $SG22049                   000000018001fad0     m_UGsKOob1SZ1GnhcskvCSLB.obj
 0003:00004ad8       $SG22050                   000000018001fad8     m_UGsKOob1SZ1GnhcskvCSLB.obj
 0003:00004b18       $SG22052                   000000018001fb18     m_UGsKOob1SZ1GnhcskvCSLB.obj
 0003:00004b28       $SG22089                   000000018001fb28     m_UGsKOob1SZ1GnhcskvCSLB.obj
 0003:00004b60       $SG22053                   000000018001fb60     m_UGsKOob1SZ1GnhcskvCSLB.obj
 0003:00004ba8       $SG22055                   000000018001fba8     m_UGsKOob1SZ1GnhcskvCSLB.obj
 0003:00004bb8       $SG22092                   000000018001fbb8     m_UGsKOob1SZ1GnhcskvCSLB.obj
 0003:00004bf0       $SG22056                   000000018001fbf0     m_UGsKOob1SZ1GnhcskvCSLB.obj
 0003:00004c38       $SG22070                   000000018001fc38     m_UGsKOob1SZ1GnhcskvCSLB.obj
 0003:00004c44       $SG22175                   000000018001fc44     m_UGsKOob1SZ1GnhcskvCSLB.obj
 0003:00004c50       $SG22071                   000000018001fc50     m_UGsKOob1SZ1GnhcskvCSLB.obj
 0003:00004c90       $SG22073                   000000018001fc90     m_UGsKOob1SZ1GnhcskvCSLB.obj
 0003:00004ca0       $SG22074                   000000018001fca0     m_UGsKOob1SZ1GnhcskvCSLB.obj
 0003:00004ce0       $SG22076                   000000018001fce0     m_UGsKOob1SZ1GnhcskvCSLB.obj
 0003:00004cf0       $SG22077                   000000018001fcf0     m_UGsKOob1SZ1GnhcskvCSLB.obj
 0003:00004d30       $SG22079                   000000018001fd30     m_UGsKOob1SZ1GnhcskvCSLB.obj
 0003:00004d40       $SG22080                   000000018001fd40     m_UGsKOob1SZ1GnhcskvCSLB.obj
 0003:00004d88       $SG22082                   000000018001fd88     m_UGsKOob1SZ1GnhcskvCSLB.obj
 0003:00004d98       $SG22118                   000000018001fd98     m_UGsKOob1SZ1GnhcskvCSLB.obj
 0003:00004db0       $SG22083                   000000018001fdb0     m_UGsKOob1SZ1GnhcskvCSLB.obj
 0003:00004df8       $SG22085                   000000018001fdf8     m_UGsKOob1SZ1GnhcskvCSLB.obj
 0003:00004e04       $SG22178                   000000018001fe04     m_UGsKOob1SZ1GnhcskvCSLB.obj
 0003:00004e10       $SG22086                   000000018001fe10     m_UGsKOob1SZ1GnhcskvCSLB.obj
 0003:00004e50       $SG22094                   000000018001fe50     m_UGsKOob1SZ1GnhcskvCSLB.obj
 0003:00004e60       $SG22095                   000000018001fe60     m_UGsKOob1SZ1GnhcskvCSLB.obj
 0003:00004ea8       $SG22097                   000000018001fea8     m_UGsKOob1SZ1GnhcskvCSLB.obj
 0003:00004eb8       $SG22112                   000000018001feb8     m_UGsKOob1SZ1GnhcskvCSLB.obj
 0003:00004ed8       $SG22121                   000000018001fed8     m_UGsKOob1SZ1GnhcskvCSLB.obj
 0003:00004ef0       $SG22098                   000000018001fef0     m_UGsKOob1SZ1GnhcskvCSLB.obj
 0003:00004f38       $SG22100                   000000018001ff38     m_UGsKOob1SZ1GnhcskvCSLB.obj
 0003:00004f48       $SG22115                   000000018001ff48     m_UGsKOob1SZ1GnhcskvCSLB.obj
 0003:00004f68       $SG22124                   000000018001ff68     m_UGsKOob1SZ1GnhcskvCSLB.obj
 0003:00004f80       $SG22101                   000000018001ff80     m_UGsKOob1SZ1GnhcskvCSLB.obj
 0003:00004fc8       $SG22103                   000000018001ffc8     m_UGsKOob1SZ1GnhcskvCSLB.obj
 0003:00004fd8       $SG22127                   000000018001ffd8     m_UGsKOob1SZ1GnhcskvCSLB.obj
 0003:00004ff0       $SG22104                   000000018001fff0     m_UGsKOob1SZ1GnhcskvCSLB.obj
 0003:00005038       $SG22106                   0000000180020038     m_UGsKOob1SZ1GnhcskvCSLB.obj
 0003:00005048       $SG22130                   0000000180020048     m_UGsKOob1SZ1GnhcskvCSLB.obj
 0003:00005060       $SG22107                   0000000180020060     m_UGsKOob1SZ1GnhcskvCSLB.obj
 0003:000050a8       $SG22109                   00000001800200a8     m_UGsKOob1SZ1GnhcskvCSLB.obj
 0003:000050b8       $SG22133                   00000001800200b8     m_UGsKOob1SZ1GnhcskvCSLB.obj
 0003:000050d4       $SG22190                   00000001800200d4     m_UGsKOob1SZ1GnhcskvCSLB.obj
 0003:000050e0       $SG22110                   00000001800200e0     m_UGsKOob1SZ1GnhcskvCSLB.obj
 0003:00005128       $SG22136                   0000000180020128     m_UGsKOob1SZ1GnhcskvCSLB.obj
 0003:00005150       $SG22113                   0000000180020150     m_UGsKOob1SZ1GnhcskvCSLB.obj
 0003:000051b0       $SG22116                   00000001800201b0     m_UGsKOob1SZ1GnhcskvCSLB.obj
 0003:00005210       $SG22119                   0000000180020210     m_UGsKOob1SZ1GnhcskvCSLB.obj
 0003:00005260       $SG22122                   0000000180020260     m_UGsKOob1SZ1GnhcskvCSLB.obj
 0003:000052b0       $SG22125                   00000001800202b0     m_UGsKOob1SZ1GnhcskvCSLB.obj
 0003:00005300       $SG22128                   0000000180020300     m_UGsKOob1SZ1GnhcskvCSLB.obj
 0003:00005350       $SG22131                   0000000180020350     m_UGsKOob1SZ1GnhcskvCSLB.obj
 0003:000053a0       $SG22134                   00000001800203a0     m_UGsKOob1SZ1GnhcskvCSLB.obj
 0003:00005400       $SG22137                   0000000180020400     m_UGsKOob1SZ1GnhcskvCSLB.obj
 0003:00005458       $SG22139                   0000000180020458     m_UGsKOob1SZ1GnhcskvCSLB.obj
 0003:00005470       $SG22140                   0000000180020470     m_UGsKOob1SZ1GnhcskvCSLB.obj
 0003:000054b8       $SG22142                   00000001800204b8     m_UGsKOob1SZ1GnhcskvCSLB.obj
 0003:000054d0       $SG22143                   00000001800204d0     m_UGsKOob1SZ1GnhcskvCSLB.obj
 0003:00005518       $SG22145                   0000000180020518     m_UGsKOob1SZ1GnhcskvCSLB.obj
 0003:00005530       $SG22146                   0000000180020530     m_UGsKOob1SZ1GnhcskvCSLB.obj
 0003:00005578       $SG22148                   0000000180020578     m_UGsKOob1SZ1GnhcskvCSLB.obj
 0003:00005590       $SG22149                   0000000180020590     m_UGsKOob1SZ1GnhcskvCSLB.obj
 0003:000055d8       $SG22151                   00000001800205d8     m_UGsKOob1SZ1GnhcskvCSLB.obj
 0003:000055f0       $SG22152                   00000001800205f0     m_UGsKOob1SZ1GnhcskvCSLB.obj
 0003:00005638       $SG22154                   0000000180020638     m_UGsKOob1SZ1GnhcskvCSLB.obj
 0003:00005650       $SG22155                   0000000180020650     m_UGsKOob1SZ1GnhcskvCSLB.obj
 0003:00005698       $SG22157                   0000000180020698     m_UGsKOob1SZ1GnhcskvCSLB.obj
 0003:000056b0       $SG22158                   00000001800206b0     m_UGsKOob1SZ1GnhcskvCSLB.obj
 0003:00005700       $SG22160                   0000000180020700     m_UGsKOob1SZ1GnhcskvCSLB.obj
 0003:00005718       $SG22163                   0000000180020718     m_UGsKOob1SZ1GnhcskvCSLB.obj
 0003:00005730       $SG22161                   0000000180020730     m_UGsKOob1SZ1GnhcskvCSLB.obj
 0003:00005780       $SG22164                   0000000180020780     m_UGsKOob1SZ1GnhcskvCSLB.obj
 0003:000057d0       $SG22166                   00000001800207d0     m_UGsKOob1SZ1GnhcskvCSLB.obj
 0003:000057e0       $SG22167                   00000001800207e0     m_UGsKOob1SZ1GnhcskvCSLB.obj
 0003:00005830       $SG22170                   0000000180020830     m_UGsKOob1SZ1GnhcskvCSLB.obj
 0003:00005868       $SG22172                   0000000180020868     m_UGsKOob1SZ1GnhcskvCSLB.obj
 0003:00005880       $SG22173                   0000000180020880     m_UGsKOob1SZ1GnhcskvCSLB.obj
 0003:000058c8       $SG22176                   00000001800208c8     m_UGsKOob1SZ1GnhcskvCSLB.obj
 0003:00005900       $SG22179                   0000000180020900     m_UGsKOob1SZ1GnhcskvCSLB.obj
 0003:00005938       $SG22181                   0000000180020938     m_UGsKOob1SZ1GnhcskvCSLB.obj
 0003:00005950       $SG22182                   0000000180020950     m_UGsKOob1SZ1GnhcskvCSLB.obj
 0003:00005998       $SG22184                   0000000180020998     m_UGsKOob1SZ1GnhcskvCSLB.obj
 0003:000059b0       $SG22185                   00000001800209b0     m_UGsKOob1SZ1GnhcskvCSLB.obj
 0003:000059f8       $SG22187                   00000001800209f8     m_UGsKOob1SZ1GnhcskvCSLB.obj
 0003:00005a10       $SG22188                   0000000180020a10     m_UGsKOob1SZ1GnhcskvCSLB.obj
 0003:00005a58       $SG22191                   0000000180020a58     m_UGsKOob1SZ1GnhcskvCSLB.obj
 0003:00005a90       $SG22193                   0000000180020a90     m_UGsKOob1SZ1GnhcskvCSLB.obj
 0003:00005aa0       $SG22194                   0000000180020aa0     m_UGsKOob1SZ1GnhcskvCSLB.obj
 0003:00005af0       $SG22196                   0000000180020af0     m_UGsKOob1SZ1GnhcskvCSLB.obj
 0003:00005b00       $SG22197                   0000000180020b00     m_UGsKOob1SZ1GnhcskvCSLB.obj
 0003:00005b50       $SG22199                   0000000180020b50     m_UGsKOob1SZ1GnhcskvCSLB.obj
 0003:00005b68       $SG22202                   0000000180020b68     m_UGsKOob1SZ1GnhcskvCSLB.obj
 0003:00005b80       $SG22200                   0000000180020b80     m_UGsKOob1SZ1GnhcskvCSLB.obj
 0003:00005bd0       $SG22203                   0000000180020bd0     m_UGsKOob1SZ1GnhcskvCSLB.obj
 0003:00005c18       $SG22205                   0000000180020c18     m_UGsKOob1SZ1GnhcskvCSLB.obj
 0003:00005c30       $SG22206                   0000000180020c30     m_UGsKOob1SZ1GnhcskvCSLB.obj
 0003:00005c78       $SG22208                   0000000180020c78     m_UGsKOob1SZ1GnhcskvCSLB.obj
 0003:00005c90       $SG22209                   0000000180020c90     m_UGsKOob1SZ1GnhcskvCSLB.obj
 0003:00005cd8       $SG22211                   0000000180020cd8     m_UGsKOob1SZ1GnhcskvCSLB.obj
 0003:00005cf0       $SG22212                   0000000180020cf0     m_UGsKOob1SZ1GnhcskvCSLB.obj
 0003:00005d38       $SG22215                   0000000180020d38     m_UGsKOob1SZ1GnhcskvCSLB.obj
 0003:00005d70       emlrtRSI                   0000000180020d70     m_UGsKOob1SZ1GnhcskvCSLB.obj
 0003:00005d88       b_emlrtRSI                 0000000180020d88     m_UGsKOob1SZ1GnhcskvCSLB.obj
 0003:00005da0       c_emlrtRSI                 0000000180020da0     m_UGsKOob1SZ1GnhcskvCSLB.obj
 0003:00005db8       d_emlrtRSI                 0000000180020db8     m_UGsKOob1SZ1GnhcskvCSLB.obj
 0003:00005dd0       e_emlrtRSI                 0000000180020dd0     m_UGsKOob1SZ1GnhcskvCSLB.obj
 0003:00005de8       f_emlrtRSI                 0000000180020de8     m_UGsKOob1SZ1GnhcskvCSLB.obj
 0003:00005e00       g_emlrtRSI                 0000000180020e00     m_UGsKOob1SZ1GnhcskvCSLB.obj
 0003:00005e18       h_emlrtRSI                 0000000180020e18     m_UGsKOob1SZ1GnhcskvCSLB.obj
 0003:00005e30       i_emlrtRSI                 0000000180020e30     m_UGsKOob1SZ1GnhcskvCSLB.obj
 0003:00005e48       j_emlrtRSI                 0000000180020e48     m_UGsKOob1SZ1GnhcskvCSLB.obj
 0003:00005e60       k_emlrtRSI                 0000000180020e60     m_UGsKOob1SZ1GnhcskvCSLB.obj
 0003:00005e78       l_emlrtRSI                 0000000180020e78     m_UGsKOob1SZ1GnhcskvCSLB.obj
 0003:00005e90       m_emlrtRSI                 0000000180020e90     m_UGsKOob1SZ1GnhcskvCSLB.obj
 0003:00005ea8       n_emlrtRSI                 0000000180020ea8     m_UGsKOob1SZ1GnhcskvCSLB.obj
 0003:00005ec0       o_emlrtRSI                 0000000180020ec0     m_UGsKOob1SZ1GnhcskvCSLB.obj
 0003:00005ed8       p_emlrtRSI                 0000000180020ed8     m_UGsKOob1SZ1GnhcskvCSLB.obj
 0003:00005ef0       q_emlrtRSI                 0000000180020ef0     m_UGsKOob1SZ1GnhcskvCSLB.obj
 0003:00005f08       r_emlrtRSI                 0000000180020f08     m_UGsKOob1SZ1GnhcskvCSLB.obj
 0003:00005f20       s_emlrtRSI                 0000000180020f20     m_UGsKOob1SZ1GnhcskvCSLB.obj
 0003:00005f38       t_emlrtRSI                 0000000180020f38     m_UGsKOob1SZ1GnhcskvCSLB.obj
 0003:00005f50       u_emlrtRSI                 0000000180020f50     m_UGsKOob1SZ1GnhcskvCSLB.obj
 0003:00005f68       v_emlrtRSI                 0000000180020f68     m_UGsKOob1SZ1GnhcskvCSLB.obj
 0003:00005f80       w_emlrtRSI                 0000000180020f80     m_UGsKOob1SZ1GnhcskvCSLB.obj
 0003:00005f98       x_emlrtRSI                 0000000180020f98     m_UGsKOob1SZ1GnhcskvCSLB.obj
 0003:00005fb0       y_emlrtRSI                 0000000180020fb0     m_UGsKOob1SZ1GnhcskvCSLB.obj
 0003:00005fc8       ab_emlrtRSI                0000000180020fc8     m_UGsKOob1SZ1GnhcskvCSLB.obj
 0003:00005fe0       bb_emlrtRSI                0000000180020fe0     m_UGsKOob1SZ1GnhcskvCSLB.obj
 0003:00005ff8       cb_emlrtRSI                0000000180020ff8     m_UGsKOob1SZ1GnhcskvCSLB.obj
 0003:00006010       db_emlrtRSI                0000000180021010     m_UGsKOob1SZ1GnhcskvCSLB.obj
 0003:00006028       eb_emlrtRSI                0000000180021028     m_UGsKOob1SZ1GnhcskvCSLB.obj
 0003:00006040       fb_emlrtRSI                0000000180021040     m_UGsKOob1SZ1GnhcskvCSLB.obj
 0003:00006058       gb_emlrtRSI                0000000180021058     m_UGsKOob1SZ1GnhcskvCSLB.obj
 0003:00006070       hb_emlrtRSI                0000000180021070     m_UGsKOob1SZ1GnhcskvCSLB.obj
 0003:00006088       ib_emlrtRSI                0000000180021088     m_UGsKOob1SZ1GnhcskvCSLB.obj
 0003:000060a0       jb_emlrtRSI                00000001800210a0     m_UGsKOob1SZ1GnhcskvCSLB.obj
 0003:000060b8       kb_emlrtRSI                00000001800210b8     m_UGsKOob1SZ1GnhcskvCSLB.obj
 0003:000060d0       lb_emlrtRSI                00000001800210d0     m_UGsKOob1SZ1GnhcskvCSLB.obj
 0003:000060e8       mb_emlrtRSI                00000001800210e8     m_UGsKOob1SZ1GnhcskvCSLB.obj
 0003:00006100       nb_emlrtRSI                0000000180021100     m_UGsKOob1SZ1GnhcskvCSLB.obj
 0003:00006118       ob_emlrtRSI                0000000180021118     m_UGsKOob1SZ1GnhcskvCSLB.obj
 0003:00006130       pb_emlrtRSI                0000000180021130     m_UGsKOob1SZ1GnhcskvCSLB.obj
 0003:00006148       qb_emlrtRSI                0000000180021148     m_UGsKOob1SZ1GnhcskvCSLB.obj
 0003:00006160       rb_emlrtRSI                0000000180021160     m_UGsKOob1SZ1GnhcskvCSLB.obj
 0003:00006178       sb_emlrtRSI                0000000180021178     m_UGsKOob1SZ1GnhcskvCSLB.obj
 0003:00006190       tb_emlrtRSI                0000000180021190     m_UGsKOob1SZ1GnhcskvCSLB.obj
 0003:000061a8       ub_emlrtRSI                00000001800211a8     m_UGsKOob1SZ1GnhcskvCSLB.obj
 0003:000061c0       vb_emlrtRSI                00000001800211c0     m_UGsKOob1SZ1GnhcskvCSLB.obj
 0003:000061d8       wb_emlrtRSI                00000001800211d8     m_UGsKOob1SZ1GnhcskvCSLB.obj
 0003:000061f0       xb_emlrtRSI                00000001800211f0     m_UGsKOob1SZ1GnhcskvCSLB.obj
 0003:00006208       yb_emlrtRSI                0000000180021208     m_UGsKOob1SZ1GnhcskvCSLB.obj
 0003:00006220       ac_emlrtRSI                0000000180021220     m_UGsKOob1SZ1GnhcskvCSLB.obj
 0003:00006238       bc_emlrtRSI                0000000180021238     m_UGsKOob1SZ1GnhcskvCSLB.obj
 0003:00006250       cc_emlrtRSI                0000000180021250     m_UGsKOob1SZ1GnhcskvCSLB.obj
 0003:00006268       dc_emlrtRSI                0000000180021268     m_UGsKOob1SZ1GnhcskvCSLB.obj
 0003:00006280       ec_emlrtRSI                0000000180021280     m_UGsKOob1SZ1GnhcskvCSLB.obj
 0003:00006298       fc_emlrtRSI                0000000180021298     m_UGsKOob1SZ1GnhcskvCSLB.obj
 0003:000062b0       gc_emlrtRSI                00000001800212b0     m_UGsKOob1SZ1GnhcskvCSLB.obj
 0003:000062c8       hc_emlrtRSI                00000001800212c8     m_UGsKOob1SZ1GnhcskvCSLB.obj
 0003:000062e0       ic_emlrtRSI                00000001800212e0     m_UGsKOob1SZ1GnhcskvCSLB.obj
 0003:000062f8       jc_emlrtRSI                00000001800212f8     m_UGsKOob1SZ1GnhcskvCSLB.obj
 0003:00006310       kc_emlrtRSI                0000000180021310     m_UGsKOob1SZ1GnhcskvCSLB.obj
 0003:00006328       lc_emlrtRSI                0000000180021328     m_UGsKOob1SZ1GnhcskvCSLB.obj
 0003:00006340       mc_emlrtRSI                0000000180021340     m_UGsKOob1SZ1GnhcskvCSLB.obj
 0003:00006358       nc_emlrtRSI                0000000180021358     m_UGsKOob1SZ1GnhcskvCSLB.obj
 0003:00006370       oc_emlrtRSI                0000000180021370     m_UGsKOob1SZ1GnhcskvCSLB.obj
 0003:00006388       pc_emlrtRSI                0000000180021388     m_UGsKOob1SZ1GnhcskvCSLB.obj
 0003:000063a0       qc_emlrtRSI                00000001800213a0     m_UGsKOob1SZ1GnhcskvCSLB.obj
 0003:000063b8       rc_emlrtRSI                00000001800213b8     m_UGsKOob1SZ1GnhcskvCSLB.obj
 0003:000063d0       emlrtMCI                   00000001800213d0     m_UGsKOob1SZ1GnhcskvCSLB.obj
 0003:000063e8       b_emlrtMCI                 00000001800213e8     m_UGsKOob1SZ1GnhcskvCSLB.obj
 0003:00006400       c_emlrtMCI                 0000000180021400     m_UGsKOob1SZ1GnhcskvCSLB.obj
 0003:00006418       d_emlrtMCI                 0000000180021418     m_UGsKOob1SZ1GnhcskvCSLB.obj
 0003:00006430       e_emlrtMCI                 0000000180021430     m_UGsKOob1SZ1GnhcskvCSLB.obj
 0003:00006448       f_emlrtMCI                 0000000180021448     m_UGsKOob1SZ1GnhcskvCSLB.obj
 0003:00006460       h_emlrtMCI                 0000000180021460     m_UGsKOob1SZ1GnhcskvCSLB.obj
 0003:00006478       i_emlrtMCI                 0000000180021478     m_UGsKOob1SZ1GnhcskvCSLB.obj
 0003:00006490       j_emlrtMCI                 0000000180021490     m_UGsKOob1SZ1GnhcskvCSLB.obj
 0003:000064a8       k_emlrtMCI                 00000001800214a8     m_UGsKOob1SZ1GnhcskvCSLB.obj
 0003:000064c0       sc_emlrtRSI                00000001800214c0     m_UGsKOob1SZ1GnhcskvCSLB.obj
 0003:000064d8       tc_emlrtRSI                00000001800214d8     m_UGsKOob1SZ1GnhcskvCSLB.obj
 0003:000064f0       uc_emlrtRSI                00000001800214f0     m_UGsKOob1SZ1GnhcskvCSLB.obj
 0003:00006508       vc_emlrtRSI                0000000180021508     m_UGsKOob1SZ1GnhcskvCSLB.obj
 0003:00006520       wc_emlrtRSI                0000000180021520     m_UGsKOob1SZ1GnhcskvCSLB.obj
 0003:00006538       xc_emlrtRSI                0000000180021538     m_UGsKOob1SZ1GnhcskvCSLB.obj
 0003:00006550       yc_emlrtRSI                0000000180021550     m_UGsKOob1SZ1GnhcskvCSLB.obj
 0003:00006568       ad_emlrtRSI                0000000180021568     m_UGsKOob1SZ1GnhcskvCSLB.obj
 0003:00006580       bd_emlrtRSI                0000000180021580     m_UGsKOob1SZ1GnhcskvCSLB.obj
 0003:00006598       $SG22411                   0000000180021598     m_UGsKOob1SZ1GnhcskvCSLB.obj
 0003:000065b0       $SG22412                   00000001800215b0     m_UGsKOob1SZ1GnhcskvCSLB.obj
 0003:000065d8       ?b_u@?1??AWGNChannelBase_set_SNR@@9@9 00000001800215d8     m_UGsKOob1SZ1GnhcskvCSLB.obj
 0003:000065f0       ?uv@?1??mw__internal__system__init__fcn@@9@9 00000001800215f0     m_UGsKOob1SZ1GnhcskvCSLB.obj
 0003:00006fb4       ?f_u@?1??AWGNChannelBase_set_SNR@@9@9 0000000180021fb4     m_UGsKOob1SZ1GnhcskvCSLB.obj
 0003:00006fb8       ?d_u@?1??AWGNChannelBase_set_SNR@@9@9 0000000180021fb8     m_UGsKOob1SZ1GnhcskvCSLB.obj
 0003:00006fe8       ?f_u@?1??AWGNChannelBase_set_SignalPower@@9@9 0000000180021fe8     m_UGsKOob1SZ1GnhcskvCSLB.obj
 0003:00007018       ?j_u@?1??AWGNChannelBase_set_SignalPower@@9@9 0000000180022018     m_UGsKOob1SZ1GnhcskvCSLB.obj
 0003:00007048       ?l_u@?1??AWGNChannelBase_set_SignalPower@@9@9 0000000180022048     m_UGsKOob1SZ1GnhcskvCSLB.obj
 0003:00007078       ?b_u@?1??AWGNChannelBase_set_SignalPower@@9@9 0000000180022078     m_UGsKOob1SZ1GnhcskvCSLB.obj
 0003:00007090       ?e_u@?1??AWGNChannelBase_set_SignalPower@@9@9 0000000180022090     m_UGsKOob1SZ1GnhcskvCSLB.obj
 0003:000070a8       ?i_u@?1??AWGNChannelBase_set_SignalPower@@9@9 00000001800220a8     m_UGsKOob1SZ1GnhcskvCSLB.obj
 0003:000070c0       ?k_u@?1??AWGNChannelBase_set_SignalPower@@9@9 00000001800220c0     m_UGsKOob1SZ1GnhcskvCSLB.obj
 0003:000070cc       ?d_u@?1??AWGNChannelBase_getStandardDeviation@@9@9 00000001800220cc     m_UGsKOob1SZ1GnhcskvCSLB.obj
 0003:000070d0       ?b_u@?1??SystemCore_setup@@9@9 00000001800220d0     m_UGsKOob1SZ1GnhcskvCSLB.obj
 0003:00007104       ?h_u@?1??mw__internal__call__step@@9@9 0000000180022104     m_UGsKOob1SZ1GnhcskvCSLB.obj
 0003:00007108       ?h_u@?1??SystemCore_setup@@9@9 0000000180022108     m_UGsKOob1SZ1GnhcskvCSLB.obj
 0003:0000713c       $SG23227                   000000018002213c     m_UGsKOob1SZ1GnhcskvCSLB.obj
 0003:00007148       ?f_u@?1??SystemCore_setup@@9@9 0000000180022148     m_UGsKOob1SZ1GnhcskvCSLB.obj
 0003:00007160       ?d_u@?1??SystemCore_setup@@9@9 0000000180022160     m_UGsKOob1SZ1GnhcskvCSLB.obj
 0003:00007168       ?iv1@?1??SystemCore_setup@@9@9 0000000180022168     m_UGsKOob1SZ1GnhcskvCSLB.obj
 0003:00007170       ?b_u@?1??AWGNChannelBase_getStandardDeviation@@9@9 0000000180022170     m_UGsKOob1SZ1GnhcskvCSLB.obj
 0003:00007190       ?b_u@?1??SystemCore_checkTunablePropChange@@9@9 0000000180022190     m_UGsKOob1SZ1GnhcskvCSLB.obj
 0003:000071c0       ?b_u@?1??mw__internal__call__reset@@9@9 00000001800221c0     m_UGsKOob1SZ1GnhcskvCSLB.obj
 0003:000071f0       ?d_u@?1??mw__internal__call__reset@@9@9 00000001800221f0     m_UGsKOob1SZ1GnhcskvCSLB.obj
 0003:0000721c       ?f_u@?1??mw__internal__call__reset@@9@9 000000018002221c     m_UGsKOob1SZ1GnhcskvCSLB.obj
 0003:00007228       ?g_u@?1??mw__internal__call__step@@9@9 0000000180022228     m_UGsKOob1SZ1GnhcskvCSLB.obj
 0003:00007260       ?f_u@?1??mw__internal__call__step@@9@9 0000000180022260     m_UGsKOob1SZ1GnhcskvCSLB.obj
 0003:00007298       ?b_u@?1??mw__internal__call__step@@9@9 0000000180022298     m_UGsKOob1SZ1GnhcskvCSLB.obj
 0003:000072c8       ?inSize@?1??mw__internal__call__step@@9@9 00000001800222c8     m_UGsKOob1SZ1GnhcskvCSLB.obj
 0003:000072d0       $SG23203                   00000001800222d0     m_UGsKOob1SZ1GnhcskvCSLB.obj
 0003:000072d8       $SG23214                   00000001800222d8     m_UGsKOob1SZ1GnhcskvCSLB.obj
 0003:000072e8       $SG23238                   00000001800222e8     m_UGsKOob1SZ1GnhcskvCSLB.obj
 0003:000072f0       ?dv@?1??genrandn@@9@9      00000001800222f0     m_UGsKOob1SZ1GnhcskvCSLB.obj
 0003:000074f8       ?c_u@?1??b_genrandu@@9@9   00000001800224f8     m_UGsKOob1SZ1GnhcskvCSLB.obj
 0003:00007520       ?dv@?1??eml_rand_mt19937ar@@9@9 0000000180022520     m_UGsKOob1SZ1GnhcskvCSLB.obj
 0003:00007d28       $SG23498                   0000000180022d28     m_UGsKOob1SZ1GnhcskvCSLB.obj
 0003:00007d40       ?dv1@?1??eml_rand_mt19937ar@@9@9 0000000180022d40     m_UGsKOob1SZ1GnhcskvCSLB.obj
 0003:00008548       $SG23484                   0000000180023548     m_UGsKOob1SZ1GnhcskvCSLB.obj
 0003:00008558       $SG23485                   0000000180023558     m_UGsKOob1SZ1GnhcskvCSLB.obj
 0003:00008568       $SG23496                   0000000180023568     m_UGsKOob1SZ1GnhcskvCSLB.obj
 0003:00008578       $SG23499                   0000000180023578     m_UGsKOob1SZ1GnhcskvCSLB.obj
 0003:00008590       $SG23500                   0000000180023590     m_UGsKOob1SZ1GnhcskvCSLB.obj
 0003:000085a8       $SG20392                   00000001800235a8     Quadrature_Phase_Shift_Keying_cgxe_registry.obj
 0003:000085d8       $SG20397                   00000001800235d8     Quadrature_Phase_Shift_Keying_cgxe_registry.obj
 0003:00008618       $SG20404                   0000000180023618     Quadrature_Phase_Shift_Keying_cgxe_registry.obj
 0003:0000864c       $SG20462                   000000018002364c     Quadrature_Phase_Shift_Keying_cgxe_registry.obj
 0003:00008654       $SG20466                   0000000180023654     Quadrature_Phase_Shift_Keying_cgxe_registry.obj
 0003:0000865c       $SG22339                   000000018002365c     Quadrature_Phase_Shift_Keying_cgxe_registry.obj
 0003:00008660       $SG20411                   0000000180023660     Quadrature_Phase_Shift_Keying_cgxe_registry.obj
 0003:00008694       $SG20472                   0000000180023694     Quadrature_Phase_Shift_Keying_cgxe_registry.obj
 0003:0000869c       $SG22420                   000000018002369c     Quadrature_Phase_Shift_Keying_cgxe_registry.obj
 0003:000086a0       $SG20416                   00000001800236a0     Quadrature_Phase_Shift_Keying_cgxe_registry.obj
 0003:000086d8       $SG20460                   00000001800236d8     Quadrature_Phase_Shift_Keying_cgxe_registry.obj
 0003:000086e0       $SG20464                   00000001800236e0     Quadrature_Phase_Shift_Keying_cgxe_registry.obj
 0003:000086f0       $SG20468                   00000001800236f0     Quadrature_Phase_Shift_Keying_cgxe_registry.obj
 0003:000086f8       $SG20469                   00000001800236f8     Quadrature_Phase_Shift_Keying_cgxe_registry.obj
 0003:00008700       $SG20470                   0000000180023700     Quadrature_Phase_Shift_Keying_cgxe_registry.obj
 0003:00008708       $SG20471                   0000000180023708     Quadrature_Phase_Shift_Keying_cgxe_registry.obj
 0003:00008718       $SG20473                   0000000180023718     Quadrature_Phase_Shift_Keying_cgxe_registry.obj
 0003:00008720       $SG20518                   0000000180023720     Quadrature_Phase_Shift_Keying_cgxe_registry.obj
 0003:00008750       $SG20533                   0000000180023750     Quadrature_Phase_Shift_Keying_cgxe_registry.obj
 0003:00008780       $SG20553                   0000000180023780     Quadrature_Phase_Shift_Keying_cgxe_registry.obj
 0003:00008798       $SG20555                   0000000180023798     Quadrature_Phase_Shift_Keying_cgxe_registry.obj
 0003:000087b0       $SG20575                   00000001800237b0     Quadrature_Phase_Shift_Keying_cgxe_registry.obj
 0003:000087c8       $SG20577                   00000001800237c8     Quadrature_Phase_Shift_Keying_cgxe_registry.obj
 0003:000087e0       $SG20595                   00000001800237e0     Quadrature_Phase_Shift_Keying_cgxe_registry.obj
 0003:000087f0       $SG20597                   00000001800237f0     Quadrature_Phase_Shift_Keying_cgxe_registry.obj
 0003:00008800       $SG20599                   0000000180023800     Quadrature_Phase_Shift_Keying_cgxe_registry.obj
 0003:00008810       $SG20601                   0000000180023810     Quadrature_Phase_Shift_Keying_cgxe_registry.obj
 0003:00008820       $SG20603                   0000000180023820     Quadrature_Phase_Shift_Keying_cgxe_registry.obj
 0003:00008838       $SG20605                   0000000180023838     Quadrature_Phase_Shift_Keying_cgxe_registry.obj
 0003:00008850       $SG20619                   0000000180023850     Quadrature_Phase_Shift_Keying_cgxe_registry.obj
 0003:00008878       _sfcnName                  0000000180023878     Quadrature_Phase_Shift_Keying_cgxe_registry.obj
 0003:000088b8       $SG21045                   00000001800238b8     Quadrature_Phase_Shift_Keying_cgxe_registry.obj
 0003:000088e0       $SG20636                   00000001800238e0     Quadrature_Phase_Shift_Keying_cgxe_registry.obj
 0003:00008958       $SG21046                   0000000180023958     Quadrature_Phase_Shift_Keying_cgxe_registry.obj
 0003:00008980       $SG20641                   0000000180023980     Quadrature_Phase_Shift_Keying_cgxe_registry.obj
 0003:000089f8       $SG21060                   00000001800239f8     Quadrature_Phase_Shift_Keying_cgxe_registry.obj
 0003:00008a08       $SG21250                   0000000180023a08     Quadrature_Phase_Shift_Keying_cgxe_registry.obj
 0003:00008a48       $SG21251                   0000000180023a48     Quadrature_Phase_Shift_Keying_cgxe_registry.obj
 0003:00008a58       $SG21252                   0000000180023a58     Quadrature_Phase_Shift_Keying_cgxe_registry.obj
 0003:00008a60       $SG21256                   0000000180023a60     Quadrature_Phase_Shift_Keying_cgxe_registry.obj
 0003:00008aa8       $SG21257                   0000000180023aa8     Quadrature_Phase_Shift_Keying_cgxe_registry.obj
 0003:00008ab8       $SG21258                   0000000180023ab8     Quadrature_Phase_Shift_Keying_cgxe_registry.obj
 0003:00008ac0       $SG21259                   0000000180023ac0     Quadrature_Phase_Shift_Keying_cgxe_registry.obj
 0003:00008b18       $SG21260                   0000000180023b18     Quadrature_Phase_Shift_Keying_cgxe_registry.obj
 0003:00008b28       $SG21261                   0000000180023b28     Quadrature_Phase_Shift_Keying_cgxe_registry.obj
 0003:00008b30       $SG21283                   0000000180023b30     Quadrature_Phase_Shift_Keying_cgxe_registry.obj
 0003:00008b70       $SG21284                   0000000180023b70     Quadrature_Phase_Shift_Keying_cgxe_registry.obj
 0003:00008b80       $SG21285                   0000000180023b80     Quadrature_Phase_Shift_Keying_cgxe_registry.obj
 0003:00008b88       $SG21291                   0000000180023b88     Quadrature_Phase_Shift_Keying_cgxe_registry.obj
 0003:00008b90       $SG21289                   0000000180023b90     Quadrature_Phase_Shift_Keying_cgxe_registry.obj
 0003:00008bd8       $SG21290                   0000000180023bd8     Quadrature_Phase_Shift_Keying_cgxe_registry.obj
 0003:00008be8       $SG21294                   0000000180023be8     Quadrature_Phase_Shift_Keying_cgxe_registry.obj
 0003:00008bf0       $SG21292                   0000000180023bf0     Quadrature_Phase_Shift_Keying_cgxe_registry.obj
 0003:00008c48       $SG21293                   0000000180023c48     Quadrature_Phase_Shift_Keying_cgxe_registry.obj
 0003:00008c58       $SG21320                   0000000180023c58     Quadrature_Phase_Shift_Keying_cgxe_registry.obj
 0003:00008c60       $SG21318                   0000000180023c60     Quadrature_Phase_Shift_Keying_cgxe_registry.obj
 0003:00008cb0       $SG21319                   0000000180023cb0     Quadrature_Phase_Shift_Keying_cgxe_registry.obj
 0003:00008cc0       $SG21332                   0000000180023cc0     Quadrature_Phase_Shift_Keying_cgxe_registry.obj
 0003:00008d20       $SG21333                   0000000180023d20     Quadrature_Phase_Shift_Keying_cgxe_registry.obj
 0003:00008d28       $SG21334                   0000000180023d28     Quadrature_Phase_Shift_Keying_cgxe_registry.obj
 0003:00008d30       $SG21346                   0000000180023d30     Quadrature_Phase_Shift_Keying_cgxe_registry.obj
 0003:00008d90       $SG21347                   0000000180023d90     Quadrature_Phase_Shift_Keying_cgxe_registry.obj
 0003:00008d98       $SG21348                   0000000180023d98     Quadrature_Phase_Shift_Keying_cgxe_registry.obj
 0003:00008da0       $SG21701                   0000000180023da0     Quadrature_Phase_Shift_Keying_cgxe_registry.obj
 0003:00008e18       $SG22323                   0000000180023e18     Quadrature_Phase_Shift_Keying_cgxe_registry.obj
 0003:00008e30       $SG21704                   0000000180023e30     Quadrature_Phase_Shift_Keying_cgxe_registry.obj
 0003:00008ea4       $SG22394                   0000000180023ea4     Quadrature_Phase_Shift_Keying_cgxe_registry.obj
 0003:00008eb0       $SG21709                   0000000180023eb0     Quadrature_Phase_Shift_Keying_cgxe_registry.obj
 0003:00008f28       $SG22395                   0000000180023f28     Quadrature_Phase_Shift_Keying_cgxe_registry.obj
 0003:00008f30       $SG21717                   0000000180023f30     Quadrature_Phase_Shift_Keying_cgxe_registry.obj
 0003:00008fa0       $SG21992                   0000000180023fa0     Quadrature_Phase_Shift_Keying_cgxe_registry.obj
 0003:00009018       $SG22396                   0000000180024018     Quadrature_Phase_Shift_Keying_cgxe_registry.obj
 0003:00009020       $SG21997                   0000000180024020     Quadrature_Phase_Shift_Keying_cgxe_registry.obj
 0003:00009098       $SG22402                   0000000180024098     Quadrature_Phase_Shift_Keying_cgxe_registry.obj
 0003:000090a0       $SG22336                   00000001800240a0     Quadrature_Phase_Shift_Keying_cgxe_registry.obj
 0003:00009118       $SG22405                   0000000180024118     Quadrature_Phase_Shift_Keying_cgxe_registry.obj
 0003:00009120       $SG22397                   0000000180024120     Quadrature_Phase_Shift_Keying_cgxe_registry.obj
 0003:00009198       $SG22408                   0000000180024198     Quadrature_Phase_Shift_Keying_cgxe_registry.obj
 0003:000091a0       $SG22399                   00000001800241a0     Quadrature_Phase_Shift_Keying_cgxe_registry.obj
 0003:00009220       $SG22409                   0000000180024220     Quadrature_Phase_Shift_Keying_cgxe_registry.obj
 0003:000092a0       $SG22410                   00000001800242a0     Quadrature_Phase_Shift_Keying_cgxe_registry.obj
 0003:000092b0       $SG22412                   00000001800242b0     Quadrature_Phase_Shift_Keying_cgxe_registry.obj
 0003:000092bc       $SG22414                   00000001800242bc     Quadrature_Phase_Shift_Keying_cgxe_registry.obj
 0003:000092c4       $SG22416                   00000001800242c4     Quadrature_Phase_Shift_Keying_cgxe_registry.obj
 0003:000092d0       $SG22418                   00000001800242d0     Quadrature_Phase_Shift_Keying_cgxe_registry.obj
 0003:000092e0       $SG22423                   00000001800242e0     Quadrature_Phase_Shift_Keying_cgxe_registry.obj
 0003:000093c8       $SG22541                   00000001800243c8     Quadrature_Phase_Shift_Keying_cgxe_registry.obj
 0003:000093f8       $SG22542                   00000001800243f8     Quadrature_Phase_Shift_Keying_cgxe_registry.obj
 0003:00009408       $SG22543                   0000000180024408     Quadrature_Phase_Shift_Keying_cgxe_registry.obj
 0003:00009410       $SG22545                   0000000180024410     Quadrature_Phase_Shift_Keying_cgxe_registry.obj
 0003:00009448       $SG22546                   0000000180024448     Quadrature_Phase_Shift_Keying_cgxe_registry.obj
 0003:00009458       $SG22547                   0000000180024458     Quadrature_Phase_Shift_Keying_cgxe_registry.obj
 0003:00009460       $SG22550                   0000000180024460     Quadrature_Phase_Shift_Keying_cgxe_registry.obj
 0003:00009498       $SG22551                   0000000180024498     Quadrature_Phase_Shift_Keying_cgxe_registry.obj
 0003:000094a8       $SG22552                   00000001800244a8     Quadrature_Phase_Shift_Keying_cgxe_registry.obj
 0003:000094b0       $SG22554                   00000001800244b0     Quadrature_Phase_Shift_Keying_cgxe_registry.obj
 0003:000094e8       $SG22555                   00000001800244e8     Quadrature_Phase_Shift_Keying_cgxe_registry.obj
 0003:000094f8       $SG22556                   00000001800244f8     Quadrature_Phase_Shift_Keying_cgxe_registry.obj
 0003:00009500       $SG22558                   0000000180024500     Quadrature_Phase_Shift_Keying_cgxe_registry.obj
 0003:00009538       $SG22559                   0000000180024538     Quadrature_Phase_Shift_Keying_cgxe_registry.obj
 0003:00009548       $SG22560                   0000000180024548     Quadrature_Phase_Shift_Keying_cgxe_registry.obj
 0003:00009550       $SG22563                   0000000180024550     Quadrature_Phase_Shift_Keying_cgxe_registry.obj
 0003:00009578       $SG22565                   0000000180024578     Quadrature_Phase_Shift_Keying_cgxe_registry.obj
 0003:00009590       $SG22566                   0000000180024590     Quadrature_Phase_Shift_Keying_cgxe_registry.obj
 0003:000095c8       $SG22567                   00000001800245c8     Quadrature_Phase_Shift_Keying_cgxe_registry.obj
 0003:000095d8       $SG22568                   00000001800245d8     Quadrature_Phase_Shift_Keying_cgxe_registry.obj
 0003:000095e0       $SG22703                   00000001800245e0     Quadrature_Phase_Shift_Keying_cgxe_registry.obj
 0003:00009600       $SG22704                   0000000180024600     Quadrature_Phase_Shift_Keying_cgxe_registry.obj
 0003:00009690       $SG22710                   0000000180024690     Quadrature_Phase_Shift_Keying_cgxe_registry.obj
 0003:000096a8       $SG22717                   00000001800246a8     Quadrature_Phase_Shift_Keying_cgxe_registry.obj
 0003:000096c0       $SG22711                   00000001800246c0     Quadrature_Phase_Shift_Keying_cgxe_registry.obj
 0003:00009750       $SG22718                   0000000180024750     Quadrature_Phase_Shift_Keying_cgxe_registry.obj
 0003:000097e0       $SG22724                   00000001800247e0     Quadrature_Phase_Shift_Keying_cgxe_registry.obj
 0003:00009800       $SG22725                   0000000180024800     Quadrature_Phase_Shift_Keying_cgxe_registry.obj
 0003:00009890       $SG22731                   0000000180024890     Quadrature_Phase_Shift_Keying_cgxe_registry.obj
 0003:000098b0       $SG22732                   00000001800248b0     Quadrature_Phase_Shift_Keying_cgxe_registry.obj
 0003:00009940       $SG22736                   0000000180024940     Quadrature_Phase_Shift_Keying_cgxe_registry.obj
 0003:00009960       $SG22737                   0000000180024960     Quadrature_Phase_Shift_Keying_cgxe_registry.obj
 0003:000099f0       $SG22741                   00000001800249f0     Quadrature_Phase_Shift_Keying_cgxe_registry.obj
 0003:00009a18       $SG22746                   0000000180024a18     Quadrature_Phase_Shift_Keying_cgxe_registry.obj
 0003:00009a40       $SG22742                   0000000180024a40     Quadrature_Phase_Shift_Keying_cgxe_registry.obj
 0003:00009ad0       $SG22747                   0000000180024ad0     Quadrature_Phase_Shift_Keying_cgxe_registry.obj
 0003:00009b60       $SG22751                   0000000180024b60     Quadrature_Phase_Shift_Keying_cgxe_registry.obj
 0003:00009b80       $SG22752                   0000000180024b80     Quadrature_Phase_Shift_Keying_cgxe_registry.obj
 0003:00009c10       $SG22756                   0000000180024c10     Quadrature_Phase_Shift_Keying_cgxe_registry.obj
 0003:00009c30       $SG22757                   0000000180024c30     Quadrature_Phase_Shift_Keying_cgxe_registry.obj
 0003:00009cc0       $SG22761                   0000000180024cc0     Quadrature_Phase_Shift_Keying_cgxe_registry.obj
 0003:00009cd8       $SG22797                   0000000180024cd8     Quadrature_Phase_Shift_Keying_cgxe_registry.obj
 0003:00009cf0       $SG22762                   0000000180024cf0     Quadrature_Phase_Shift_Keying_cgxe_registry.obj
 0003:00009d80       $SG22766                   0000000180024d80     Quadrature_Phase_Shift_Keying_cgxe_registry.obj
 0003:00009da0       $SG22767                   0000000180024da0     Quadrature_Phase_Shift_Keying_cgxe_registry.obj
 0003:00009e30       $SG22771                   0000000180024e30     Quadrature_Phase_Shift_Keying_cgxe_registry.obj
 0003:00009e50       $SG22772                   0000000180024e50     Quadrature_Phase_Shift_Keying_cgxe_registry.obj
 0003:00009ee0       $SG22776                   0000000180024ee0     Quadrature_Phase_Shift_Keying_cgxe_registry.obj
 0003:00009f00       $SG22777                   0000000180024f00     Quadrature_Phase_Shift_Keying_cgxe_registry.obj
 0003:00009f90       $SG22781                   0000000180024f90     Quadrature_Phase_Shift_Keying_cgxe_registry.obj
 0003:00009fb0       $SG22782                   0000000180024fb0     Quadrature_Phase_Shift_Keying_cgxe_registry.obj
 0003:0000a040       $SG22786                   0000000180025040     Quadrature_Phase_Shift_Keying_cgxe_registry.obj
 0003:0000a060       $SG22787                   0000000180025060     Quadrature_Phase_Shift_Keying_cgxe_registry.obj
 0003:0000a0f0       $SG22791                   00000001800250f0     Quadrature_Phase_Shift_Keying_cgxe_registry.obj
 0003:0000a110       $SG22792                   0000000180025110     Quadrature_Phase_Shift_Keying_cgxe_registry.obj
 0003:0000a1a0       $SG22798                   00000001800251a0     Quadrature_Phase_Shift_Keying_cgxe_registry.obj
 0003:0000a230       $SG22803                   0000000180025230     Quadrature_Phase_Shift_Keying_cgxe_registry.obj
 0003:0000a248       $SG22813                   0000000180025248     Quadrature_Phase_Shift_Keying_cgxe_registry.obj
 0003:0000a260       $SG22804                   0000000180025260     Quadrature_Phase_Shift_Keying_cgxe_registry.obj
 0003:0000a2f0       $SG22808                   00000001800252f0     Quadrature_Phase_Shift_Keying_cgxe_registry.obj
 0003:0000a300       $SG22809                   0000000180025300     Quadrature_Phase_Shift_Keying_cgxe_registry.obj
 0003:0000a390       $SG22814                   0000000180025390     Quadrature_Phase_Shift_Keying_cgxe_registry.obj
 0003:0000a420       $SG22822                   0000000180025420     Quadrature_Phase_Shift_Keying_cgxe_registry.obj
 0003:0000a430       $SG22823                   0000000180025430     Quadrature_Phase_Shift_Keying_cgxe_registry.obj
 0003:0000a4c0       $SG22827                   00000001800254c0     Quadrature_Phase_Shift_Keying_cgxe_registry.obj
 0003:0000a540       $SG22829                   0000000180025540     Quadrature_Phase_Shift_Keying_cgxe_registry.obj
 0003:0000a5b8       $SG22876                   00000001800255b8     Quadrature_Phase_Shift_Keying_cgxe_registry.obj
 0003:0000a5c8       $SG22957                   00000001800255c8     Quadrature_Phase_Shift_Keying_cgxe_registry.obj
 0003:0000a5d0       $SG22833                   00000001800255d0     Quadrature_Phase_Shift_Keying_cgxe_registry.obj
 0003:0000a648       $SG22887                   0000000180025648     Quadrature_Phase_Shift_Keying_cgxe_registry.obj
 0003:0000a658       $SG22958                   0000000180025658     Quadrature_Phase_Shift_Keying_cgxe_registry.obj
 0003:0000a660       $SG22863                   0000000180025660     Quadrature_Phase_Shift_Keying_cgxe_registry.obj
 0003:0000a778       $SG22900                   0000000180025778     Quadrature_Phase_Shift_Keying_cgxe_registry.obj
 0003:0000a788       $SG22911                   0000000180025788     Quadrature_Phase_Shift_Keying_cgxe_registry.obj
 0003:0000a798       $SG22924                   0000000180025798     Quadrature_Phase_Shift_Keying_cgxe_registry.obj
 0003:0000a7a8       $SG22935                   00000001800257a8     Quadrature_Phase_Shift_Keying_cgxe_registry.obj
 0003:0000a7b8       $SG22945                   00000001800257b8     Quadrature_Phase_Shift_Keying_cgxe_registry.obj
 0003:0000a7d8       $SG22956                   00000001800257d8     Quadrature_Phase_Shift_Keying_cgxe_registry.obj
 0003:0000a808       $SG22969                   0000000180025808     Quadrature_Phase_Shift_Keying_cgxe_registry.obj
 0003:0000a840       $SG22970                   0000000180025840     Quadrature_Phase_Shift_Keying_cgxe_registry.obj
 0003:0000a848       $SG22971                   0000000180025848     Quadrature_Phase_Shift_Keying_cgxe_registry.obj
 0003:0000a890       $SG21971                   0000000180025890     m_Jf2lRQWLrP2B1g4UrAzlsF.obj
 0003:0000a891       $SG21972                   0000000180025891     m_Jf2lRQWLrP2B1g4UrAzlsF.obj
 0003:0000a892       $SG21974                   0000000180025892     m_Jf2lRQWLrP2B1g4UrAzlsF.obj
 0003:0000a893       $SG21975                   0000000180025893     m_Jf2lRQWLrP2B1g4UrAzlsF.obj
 0003:0000a894       $SG21977                   0000000180025894     m_Jf2lRQWLrP2B1g4UrAzlsF.obj
 0003:0000a895       $SG21978                   0000000180025895     m_Jf2lRQWLrP2B1g4UrAzlsF.obj
 0003:0000a896       $SG21980                   0000000180025896     m_Jf2lRQWLrP2B1g4UrAzlsF.obj
 0003:0000a897       $SG21981                   0000000180025897     m_Jf2lRQWLrP2B1g4UrAzlsF.obj
 0003:0000a898       $SG22058                   0000000180025898     m_Jf2lRQWLrP2B1g4UrAzlsF.obj
 0003:0000a899       $SG22059                   0000000180025899     m_Jf2lRQWLrP2B1g4UrAzlsF.obj
 0003:0000a89a       $SG22061                   000000018002589a     m_Jf2lRQWLrP2B1g4UrAzlsF.obj
 0003:0000a89b       $SG22062                   000000018002589b     m_Jf2lRQWLrP2B1g4UrAzlsF.obj
 0003:0000a89c       $SG22064                   000000018002589c     m_Jf2lRQWLrP2B1g4UrAzlsF.obj
 0003:0000a89d       $SG22065                   000000018002589d     m_Jf2lRQWLrP2B1g4UrAzlsF.obj
 0003:0000a89e       $SG22067                   000000018002589e     m_Jf2lRQWLrP2B1g4UrAzlsF.obj
 0003:0000a89f       $SG22068                   000000018002589f     m_Jf2lRQWLrP2B1g4UrAzlsF.obj
 0003:0000a8a0       $SG23392                   00000001800258a0     m_Jf2lRQWLrP2B1g4UrAzlsF.obj
 0003:0000a8a1       $SG23393                   00000001800258a1     m_Jf2lRQWLrP2B1g4UrAzlsF.obj
 0003:0000a8a2       $SG21971                   00000001800258a2     m_UGsKOob1SZ1GnhcskvCSLB.obj
 0003:0000a8a3       $SG21972                   00000001800258a3     m_UGsKOob1SZ1GnhcskvCSLB.obj
 0003:0000a8a4       $SG21974                   00000001800258a4     m_UGsKOob1SZ1GnhcskvCSLB.obj
 0003:0000a8a5       $SG21975                   00000001800258a5     m_UGsKOob1SZ1GnhcskvCSLB.obj
 0003:0000a8a6       $SG21977                   00000001800258a6     m_UGsKOob1SZ1GnhcskvCSLB.obj
 0003:0000a8a7       $SG21978                   00000001800258a7     m_UGsKOob1SZ1GnhcskvCSLB.obj
 0003:0000a8a8       $SG21980                   00000001800258a8     m_UGsKOob1SZ1GnhcskvCSLB.obj
 0003:0000a8a9       $SG21981                   00000001800258a9     m_UGsKOob1SZ1GnhcskvCSLB.obj
 0003:0000a8aa       $SG22058                   00000001800258aa     m_UGsKOob1SZ1GnhcskvCSLB.obj
 0003:0000a8ab       $SG22059                   00000001800258ab     m_UGsKOob1SZ1GnhcskvCSLB.obj
 0003:0000a8ac       $SG22061                   00000001800258ac     m_UGsKOob1SZ1GnhcskvCSLB.obj
 0003:0000a8ad       $SG22062                   00000001800258ad     m_UGsKOob1SZ1GnhcskvCSLB.obj
 0003:0000a8ae       $SG22064                   00000001800258ae     m_UGsKOob1SZ1GnhcskvCSLB.obj
 0003:0000a8af       $SG22065                   00000001800258af     m_UGsKOob1SZ1GnhcskvCSLB.obj
 0003:0000a8b0       $SG22067                   00000001800258b0     m_UGsKOob1SZ1GnhcskvCSLB.obj
 0003:0000a8b1       $SG22068                   00000001800258b1     m_UGsKOob1SZ1GnhcskvCSLB.obj
 0003:0000a8b2       $SG23486                   00000001800258b2     m_UGsKOob1SZ1GnhcskvCSLB.obj
 0003:0000a8b3       $SG23487                   00000001800258b3     m_UGsKOob1SZ1GnhcskvCSLB.obj
 0003:0000a8b4       $SG22390                   00000001800258b4     Quadrature_Phase_Shift_Keying_cgxe_registry.obj
 0003:0000a8b6       ?warningGuard@?1??ssGetRootSS@@9@9 00000001800258b6     Quadrature_Phase_Shift_Keying_cgxe_registry.obj
 0003:0000a8b7       ?warningGuard@?1??ssGetParentSS@@9@9 00000001800258b7     Quadrature_Phase_Shift_Keying_cgxe_registry.obj
 0003:0000a8c0       GS_ExceptionRecord         00000001800258c0     MSVCRT:gs_report.obj
 0003:0000a960       GS_ContextRecord           0000000180025960     MSVCRT:gs_report.obj
 0003:0000ae30       ?__proc_attached@@3HA      0000000180025e30     MSVCRT:dll_dllmain.obj
 0003:0000ae70       ?is_initialized_as_dll@@3_NA 0000000180025e70     MSVCRT:utility.obj
 0003:0000ae71       ?module_local_atexit_table_initialized@@3_NA 0000000180025e71     MSVCRT:utility.obj
 0003:0000ae78       ?module_local_atexit_table@@3U_onexit_table_t@@A 0000000180025e78     MSVCRT:utility.obj
 0003:0000ae90       ?module_local_at_quick_exit_table@@3U_onexit_table_t@@A 0000000180025e90     MSVCRT:utility.obj
